; ModuleID = 'Nodes.cpp'
source_filename = "Nodes.cpp"
target datalayout = "e-m:o-i64:64-f80:128-n8:16:32:64-S128"
target triple = "x86_64-apple-macosx10.15.0"

%"class.std::__1::unordered_map" = type { %"class.std::__1::__hash_table.24" }
%"class.std::__1::__hash_table.24" = type <{ %"class.std::__1::unique_ptr.25", %"class.std::__1::__compressed_pair.35", %"class.std::__1::__compressed_pair.40", %"class.std::__1::__compressed_pair.42", [4 x i8] }>
%"class.std::__1::unique_ptr.25" = type { %"class.std::__1::__compressed_pair.26" }
%"class.std::__1::__compressed_pair.26" = type { %"struct.std::__1::__compressed_pair_elem.27", %"struct.std::__1::__compressed_pair_elem.29" }
%"struct.std::__1::__compressed_pair_elem.27" = type { %"struct.std::__1::__hash_node_base.28"** }
%"struct.std::__1::__hash_node_base.28" = type { %"struct.std::__1::__hash_node_base.28"* }
%"struct.std::__1::__compressed_pair_elem.29" = type { %"class.std::__1::__bucket_list_deallocator.30" }
%"class.std::__1::__bucket_list_deallocator.30" = type { %"class.std::__1::__compressed_pair.31" }
%"class.std::__1::__compressed_pair.31" = type { %"struct.std::__1::__compressed_pair_elem.3" }
%"struct.std::__1::__compressed_pair_elem.3" = type { i64 }
%"class.std::__1::__compressed_pair.35" = type { %"struct.std::__1::__compressed_pair_elem.36" }
%"struct.std::__1::__compressed_pair_elem.36" = type { %"struct.std::__1::__hash_node_base.28" }
%"class.std::__1::__compressed_pair.40" = type { %"struct.std::__1::__compressed_pair_elem.3" }
%"class.std::__1::__compressed_pair.42" = type { %"struct.std::__1::__compressed_pair_elem.22" }
%"struct.std::__1::__compressed_pair_elem.22" = type { float }
%"class.std::__1::unordered_map.47" = type { %"class.std::__1::__hash_table.48" }
%"class.std::__1::__hash_table.48" = type <{ %"class.std::__1::unique_ptr.49", %"class.std::__1::__compressed_pair.59", %"class.std::__1::__compressed_pair.64", %"class.std::__1::__compressed_pair.70", [4 x i8] }>
%"class.std::__1::unique_ptr.49" = type { %"class.std::__1::__compressed_pair.50" }
%"class.std::__1::__compressed_pair.50" = type { %"struct.std::__1::__compressed_pair_elem.51", %"struct.std::__1::__compressed_pair_elem.53" }
%"struct.std::__1::__compressed_pair_elem.51" = type { %"struct.std::__1::__hash_node_base.52"** }
%"struct.std::__1::__hash_node_base.52" = type { %"struct.std::__1::__hash_node_base.52"* }
%"struct.std::__1::__compressed_pair_elem.53" = type { %"class.std::__1::__bucket_list_deallocator.54" }
%"class.std::__1::__bucket_list_deallocator.54" = type { %"class.std::__1::__compressed_pair.55" }
%"class.std::__1::__compressed_pair.55" = type { %"struct.std::__1::__compressed_pair_elem.3" }
%"class.std::__1::__compressed_pair.59" = type { %"struct.std::__1::__compressed_pair_elem.60" }
%"struct.std::__1::__compressed_pair_elem.60" = type { %"struct.std::__1::__hash_node_base.52" }
%"class.std::__1::__compressed_pair.64" = type { %"struct.std::__1::__compressed_pair_elem.3" }
%"class.std::__1::__compressed_pair.70" = type { %"struct.std::__1::__compressed_pair_elem.22" }
%"class.std::__1::unordered_map.80" = type { %"class.std::__1::__hash_table.81" }
%"class.std::__1::__hash_table.81" = type <{ %"class.std::__1::unique_ptr.82", %"class.std::__1::__compressed_pair.92", %"class.std::__1::__compressed_pair.97", %"class.std::__1::__compressed_pair.103", [4 x i8] }>
%"class.std::__1::unique_ptr.82" = type { %"class.std::__1::__compressed_pair.83" }
%"class.std::__1::__compressed_pair.83" = type { %"struct.std::__1::__compressed_pair_elem.84", %"struct.std::__1::__compressed_pair_elem.86" }
%"struct.std::__1::__compressed_pair_elem.84" = type { %"struct.std::__1::__hash_node_base.85"** }
%"struct.std::__1::__hash_node_base.85" = type { %"struct.std::__1::__hash_node_base.85"* }
%"struct.std::__1::__compressed_pair_elem.86" = type { %"class.std::__1::__bucket_list_deallocator.87" }
%"class.std::__1::__bucket_list_deallocator.87" = type { %"class.std::__1::__compressed_pair.88" }
%"class.std::__1::__compressed_pair.88" = type { %"struct.std::__1::__compressed_pair_elem.3" }
%"class.std::__1::__compressed_pair.92" = type { %"struct.std::__1::__compressed_pair_elem.93" }
%"struct.std::__1::__compressed_pair_elem.93" = type { %"struct.std::__1::__hash_node_base.85" }
%"class.std::__1::__compressed_pair.97" = type { %"struct.std::__1::__compressed_pair_elem.3" }
%"class.std::__1::__compressed_pair.103" = type { %"struct.std::__1::__compressed_pair_elem.22" }
%"class.std::__1::unordered_map.186" = type { %"class.std::__1::__hash_table.187" }
%"class.std::__1::__hash_table.187" = type <{ %"class.std::__1::unique_ptr.188", %"class.std::__1::__compressed_pair.198", %"class.std::__1::__compressed_pair.203", %"class.std::__1::__compressed_pair.206", [4 x i8] }>
%"class.std::__1::unique_ptr.188" = type { %"class.std::__1::__compressed_pair.189" }
%"class.std::__1::__compressed_pair.189" = type { %"struct.std::__1::__compressed_pair_elem.190", %"struct.std::__1::__compressed_pair_elem.192" }
%"struct.std::__1::__compressed_pair_elem.190" = type { %"struct.std::__1::__hash_node_base.191"** }
%"struct.std::__1::__hash_node_base.191" = type { %"struct.std::__1::__hash_node_base.191"* }
%"struct.std::__1::__compressed_pair_elem.192" = type { %"class.std::__1::__bucket_list_deallocator.193" }
%"class.std::__1::__bucket_list_deallocator.193" = type { %"class.std::__1::__compressed_pair.194" }
%"class.std::__1::__compressed_pair.194" = type { %"struct.std::__1::__compressed_pair_elem.3" }
%"class.std::__1::__compressed_pair.198" = type { %"struct.std::__1::__compressed_pair_elem.199" }
%"struct.std::__1::__compressed_pair_elem.199" = type { %"struct.std::__1::__hash_node_base.191" }
%"class.std::__1::__compressed_pair.203" = type { %"struct.std::__1::__compressed_pair_elem.3" }
%"class.std::__1::__compressed_pair.206" = type { %"struct.std::__1::__compressed_pair_elem.22" }
%"class.std::__1::locale::id" = type <{ %"struct.std::__1::once_flag", i32, [4 x i8] }>
%"struct.std::__1::once_flag" = type { i64 }
%"struct.LL2W::SelectNode" = type { %"struct.LL2W::InstructionNode", %"class.std::__1::basic_string"*, %"class.std::__1::unordered_set", %"struct.LL2W::Type"*, %"struct.LL2W::Type"*, %"struct.LL2W::Type"*, %"struct.LL2W::Value"*, %"struct.LL2W::Value"*, %"struct.LL2W::Value"* }
%"struct.LL2W::InstructionNode" = type { %"class.LL2W::ASTNode" }
%"class.LL2W::ASTNode" = type { i32 (...)**, i32, %"struct.LL2W::Location", %"class.std::__1::basic_string"*, %"class.LL2W::ASTNode"*, %"class.std::__1::list" }
%"struct.LL2W::Location" = type { i64, i64 }
%"class.std::__1::list" = type { %"class.std::__1::__list_imp" }
%"class.std::__1::__list_imp" = type { %"struct.std::__1::__list_node_base", %"class.std::__1::__compressed_pair.2" }
%"struct.std::__1::__list_node_base" = type { %"struct.std::__1::__list_node_base"*, %"struct.std::__1::__list_node_base"* }
%"class.std::__1::__compressed_pair.2" = type { %"struct.std::__1::__compressed_pair_elem.3" }
%"class.std::__1::basic_string" = type { %"class.std::__1::__compressed_pair" }
%"class.std::__1::__compressed_pair" = type { %"struct.std::__1::__compressed_pair_elem" }
%"struct.std::__1::__compressed_pair_elem" = type { %"struct.std::__1::basic_string<char, std::__1::char_traits<char>, std::__1::allocator<char> >::__rep" }
%"struct.std::__1::basic_string<char, std::__1::char_traits<char>, std::__1::allocator<char> >::__rep" = type { %union.anon }
%union.anon = type { %"struct.std::__1::basic_string<char, std::__1::char_traits<char>, std::__1::allocator<char> >::__long" }
%"struct.std::__1::basic_string<char, std::__1::char_traits<char>, std::__1::allocator<char> >::__long" = type { i64, i64, i8* }
%"class.std::__1::unordered_set" = type { %"class.std::__1::__hash_table" }
%"class.std::__1::__hash_table" = type <{ %"class.std::__1::unique_ptr", %"class.std::__1::__compressed_pair.14", %"class.std::__1::__compressed_pair.19", %"class.std::__1::__compressed_pair.21", [4 x i8] }>
%"class.std::__1::unique_ptr" = type { %"class.std::__1::__compressed_pair.7" }
%"class.std::__1::__compressed_pair.7" = type { %"struct.std::__1::__compressed_pair_elem.8", %"struct.std::__1::__compressed_pair_elem.9" }
%"struct.std::__1::__compressed_pair_elem.8" = type { %"struct.std::__1::__hash_node_base"** }
%"struct.std::__1::__hash_node_base" = type { %"struct.std::__1::__hash_node_base"* }
%"struct.std::__1::__compressed_pair_elem.9" = type { %"class.std::__1::__bucket_list_deallocator" }
%"class.std::__1::__bucket_list_deallocator" = type { %"class.std::__1::__compressed_pair.10" }
%"class.std::__1::__compressed_pair.10" = type { %"struct.std::__1::__compressed_pair_elem.3" }
%"class.std::__1::__compressed_pair.14" = type { %"struct.std::__1::__compressed_pair_elem.15" }
%"struct.std::__1::__compressed_pair_elem.15" = type { %"struct.std::__1::__hash_node_base" }
%"class.std::__1::__compressed_pair.19" = type { %"struct.std::__1::__compressed_pair_elem.3" }
%"class.std::__1::__compressed_pair.21" = type { %"struct.std::__1::__compressed_pair_elem.22" }
%"struct.LL2W::Type" = type { i32 (...)** }
%"struct.LL2W::Value" = type { i32 (...)** }
%"class.std::__1::__list_iterator" = type { %"struct.std::__1::__list_node_base"* }
%"class.std::__1::__hash_map_iterator" = type { %"class.std::__1::__hash_iterator" }
%"class.std::__1::__hash_iterator" = type { %"struct.std::__1::__hash_node_base.28"* }
%"struct.std::__1::pair" = type { i32, %"class.std::__1::basic_string" }
%"struct.std::__1::pair.46" = type <{ %"class.std::__1::__hash_const_iterator", i8, [7 x i8] }>
%"class.std::__1::__hash_const_iterator" = type { %"struct.std::__1::__hash_node_base"* }
%"struct.std::__1::pair.45" = type { i32, %"class.std::__1::basic_string" }
%"struct.std::__1::__list_node" = type { %"struct.std::__1::__list_node_base", %"class.LL2W::ASTNode"* }
%"struct.std::__1::__hash_value_type" = type { %"struct.std::__1::pair.45" }
%"struct.std::__1::pair.247" = type <{ %"class.std::__1::__hash_iterator.248", i8, [7 x i8] }>
%"class.std::__1::__hash_iterator.248" = type { %"struct.std::__1::__hash_node_base"* }
%"class.std::__1::basic_stringstream" = type { %"class.std::__1::basic_iostream.base", %"class.std::__1::basic_stringbuf", %"class.std::__1::basic_ios.base" }
%"class.std::__1::basic_iostream.base" = type { %"class.std::__1::basic_istream.base", %"class.std::__1::basic_ostream.base" }
%"class.std::__1::basic_istream.base" = type { i32 (...)**, i64 }
%"class.std::__1::basic_ostream.base" = type { i32 (...)** }
%"class.std::__1::basic_stringbuf" = type <{ %"class.std::__1::basic_streambuf", %"class.std::__1::basic_string", i8*, i32, [4 x i8] }>
%"class.std::__1::basic_streambuf" = type { i32 (...)**, %"class.std::__1::locale", i8*, i8*, i8*, i8*, i8*, i8* }
%"class.std::__1::locale" = type { %"class.std::__1::locale::__imp"* }
%"class.std::__1::locale::__imp" = type opaque
%"class.std::__1::basic_ios.base" = type <{ %"class.std::__1::ios_base", %"class.std::__1::basic_ostream"*, i32 }>
%"class.std::__1::ios_base" = type { i32 (...)**, i32, i64, i64, i32, i32, i8*, i8*, void (i32, %"class.std::__1::ios_base"*, i32)**, i32*, i64, i64, i64*, i64, i64, i8**, i64, i64 }
%"class.std::__1::basic_ostream" = type { i32 (...)**, %"class.std::__1::basic_ios.base" }
%"class.std::__1::basic_ios" = type <{ %"class.std::__1::ios_base", %"class.std::__1::basic_ostream"*, i32, [4 x i8] }>
%"class.std::__1::basic_iostream" = type { %"class.std::__1::basic_istream.base", %"class.std::__1::basic_ostream.base", %"class.std::__1::basic_ios.base" }
%"struct.std::__1::__hash_node" = type <{ %"struct.std::__1::__hash_node_base", i64, i32, [4 x i8] }>
%"class.std::out_of_range" = type { %"class.std::logic_error" }
%"class.std::logic_error" = type { %"class.std::exception", %"class.std::__1::__libcpp_refstring" }
%"class.std::exception" = type { i32 (...)** }
%"class.std::__1::__libcpp_refstring" = type { i8* }
%"struct.LL2W::AllocaNode" = type { %"struct.LL2W::InstructionNode", %"class.std::__1::basic_string"*, i8, %"struct.LL2W::Type"*, %"struct.LL2W::Type"*, %"struct.LL2W::Value"*, i32, i32 }
%"struct.LL2W::StoreNode" = type <{ %"struct.LL2W::InstructionNode", i8, i8, [6 x i8], %"struct.LL2W::Type"*, %"struct.LL2W::Type"*, %"struct.LL2W::Value"*, i32, i32, i32, i32, %"class.std::__1::basic_string"*, i32, [4 x i8] }>
%"class.std::__1::allocator" = type { i8 }
%"class.std::__1::__hash_map_iterator.76" = type { %"class.std::__1::__hash_iterator.77" }
%"class.std::__1::__hash_iterator.77" = type { %"struct.std::__1::__hash_node_base.52"* }
%"struct.std::__1::pair.78" = type { i32, %"class.std::__1::basic_string" }
%"struct.std::__1::pair.79" = type { i32, %"class.std::__1::basic_string" }
%"struct.std::__1::__hash_value_type.257" = type { %"struct.std::__1::pair.79" }
%"struct.LL2W::LoadNode" = type <{ %"struct.LL2W::InstructionNode", %"class.std::__1::basic_string"*, i8, i8, [6 x i8], %"struct.LL2W::Type"*, %"struct.LL2W::Type"*, i32, i32, i32, i32, i32, i32, %"class.std::__1::basic_string"*, %"class.std::__1::basic_string"*, %"class.std::__1::basic_string"*, %"class.std::__1::basic_string"*, i32, [4 x i8] }>
%"struct.LL2W::IcmpNode" = type { %"struct.LL2W::InstructionNode", %"class.std::__1::basic_string"*, i32, %"struct.LL2W::Type"*, %"struct.LL2W::Value"*, %"struct.LL2W::Value"* }
%"class.std::__1::__hash_map_iterator.109" = type { %"class.std::__1::__hash_iterator.110" }
%"class.std::__1::__hash_iterator.110" = type { %"struct.std::__1::__hash_node_base.85"* }
%"struct.std::__1::pair.111" = type { i32, %"class.std::__1::basic_string" }
%"struct.std::__1::pair.112" = type { i32, %"class.std::__1::basic_string" }
%"struct.std::__1::__hash_value_type.259" = type { %"struct.std::__1::pair.112" }
%"struct.LL2W::BrUncondNode" = type { %"struct.LL2W::InstructionNode", %"class.std::__1::basic_string"* }
%"struct.LL2W::BrCondNode" = type { %"struct.LL2W::InstructionNode", %"struct.LL2W::Value"*, %"class.std::__1::basic_string"*, %"class.std::__1::basic_string"* }
%"class.LL2W::CallInvokeNode" = type { %"struct.LL2W::InstructionNode", %"class.std::__1::basic_string"*, %"class.std::__1::basic_string"*, %"class.std::__1::unordered_set.113", %"class.std::__1::vector", %"class.std::__1::vector.172", i32, i32, i8, %"class.std::__1::vector.179", i8, %"struct.LL2W::Type"*, %"struct.LL2W::VariableValue"* }
%"class.std::__1::unordered_set.113" = type { %"class.std::__1::__hash_table.114" }
%"class.std::__1::__hash_table.114" = type <{ %"class.std::__1::unique_ptr.115", %"class.std::__1::__compressed_pair.125", %"class.std::__1::__compressed_pair.130", %"class.std::__1::__compressed_pair.135", [4 x i8] }>
%"class.std::__1::unique_ptr.115" = type { %"class.std::__1::__compressed_pair.116" }
%"class.std::__1::__compressed_pair.116" = type { %"struct.std::__1::__compressed_pair_elem.117", %"struct.std::__1::__compressed_pair_elem.119" }
%"struct.std::__1::__compressed_pair_elem.117" = type { %"struct.std::__1::__hash_node_base.118"** }
%"struct.std::__1::__hash_node_base.118" = type { %"struct.std::__1::__hash_node_base.118"* }
%"struct.std::__1::__compressed_pair_elem.119" = type { %"class.std::__1::__bucket_list_deallocator.120" }
%"class.std::__1::__bucket_list_deallocator.120" = type { %"class.std::__1::__compressed_pair.121" }
%"class.std::__1::__compressed_pair.121" = type { %"struct.std::__1::__compressed_pair_elem.3" }
%"class.std::__1::__compressed_pair.125" = type { %"struct.std::__1::__compressed_pair_elem.126" }
%"struct.std::__1::__compressed_pair_elem.126" = type { %"struct.std::__1::__hash_node_base.118" }
%"class.std::__1::__compressed_pair.130" = type { %"struct.std::__1::__compressed_pair_elem.3" }
%"class.std::__1::__compressed_pair.135" = type { %"struct.std::__1::__compressed_pair_elem.22" }
%"class.std::__1::vector" = type { %"class.std::__1::__vector_base" }
%"class.std::__1::__vector_base" = type { %"struct.LL2W::Constant"**, %"struct.LL2W::Constant"**, %"class.std::__1::__compressed_pair.167" }
%"struct.LL2W::Constant" = type { %"struct.LL2W::Type"*, %"struct.LL2W::Value"*, %"class.std::__1::unordered_set.140", i32, i32, %"struct.LL2W::Constant"*, %"struct.LL2W::Type"* }
%"class.std::__1::unordered_set.140" = type { %"class.std::__1::__hash_table.141" }
%"class.std::__1::__hash_table.141" = type <{ %"class.std::__1::unique_ptr.142", %"class.std::__1::__compressed_pair.152", %"class.std::__1::__compressed_pair.157", %"class.std::__1::__compressed_pair.162", [4 x i8] }>
%"class.std::__1::unique_ptr.142" = type { %"class.std::__1::__compressed_pair.143" }
%"class.std::__1::__compressed_pair.143" = type { %"struct.std::__1::__compressed_pair_elem.144", %"struct.std::__1::__compressed_pair_elem.146" }
%"struct.std::__1::__compressed_pair_elem.144" = type { %"struct.std::__1::__hash_node_base.145"** }
%"struct.std::__1::__hash_node_base.145" = type { %"struct.std::__1::__hash_node_base.145"* }
%"struct.std::__1::__compressed_pair_elem.146" = type { %"class.std::__1::__bucket_list_deallocator.147" }
%"class.std::__1::__bucket_list_deallocator.147" = type { %"class.std::__1::__compressed_pair.148" }
%"class.std::__1::__compressed_pair.148" = type { %"struct.std::__1::__compressed_pair_elem.3" }
%"class.std::__1::__compressed_pair.152" = type { %"struct.std::__1::__compressed_pair_elem.153" }
%"struct.std::__1::__compressed_pair_elem.153" = type { %"struct.std::__1::__hash_node_base.145" }
%"class.std::__1::__compressed_pair.157" = type { %"struct.std::__1::__compressed_pair_elem.3" }
%"class.std::__1::__compressed_pair.162" = type { %"struct.std::__1::__compressed_pair_elem.22" }
%"class.std::__1::__compressed_pair.167" = type { %"struct.std::__1::__compressed_pair_elem.168" }
%"struct.std::__1::__compressed_pair_elem.168" = type { %"struct.LL2W::Constant"** }
%"class.std::__1::vector.172" = type { %"class.std::__1::__vector_base.173" }
%"class.std::__1::__vector_base.173" = type { i32*, i32*, %"class.std::__1::__compressed_pair.174" }
%"class.std::__1::__compressed_pair.174" = type { %"struct.std::__1::__compressed_pair_elem.175" }
%"struct.std::__1::__compressed_pair_elem.175" = type { i32* }
%"class.std::__1::vector.179" = type { %"class.std::__1::__vector_base.180" }
%"class.std::__1::__vector_base.180" = type { %"struct.LL2W::Type"**, %"struct.LL2W::Type"**, %"class.std::__1::__compressed_pair.181" }
%"class.std::__1::__compressed_pair.181" = type { %"struct.std::__1::__compressed_pair_elem.182" }
%"struct.std::__1::__compressed_pair_elem.182" = type { %"struct.LL2W::Type"** }
%"struct.LL2W::VariableValue" = type { %"struct.LL2W::Value" }
%"class.std::__1::__hash_map_iterator.210" = type { %"class.std::__1::__hash_iterator.211" }
%"class.std::__1::__hash_iterator.211" = type { %"struct.std::__1::__hash_node_base.191"* }
%"struct.std::__1::pair.212" = type { i32, %"class.std::__1::basic_string" }
%"struct.std::__1::pair.214" = type <{ %"class.std::__1::__hash_const_iterator.215", i8, [7 x i8] }>
%"class.std::__1::__hash_const_iterator.215" = type { %"struct.std::__1::__hash_node_base.118"* }
%"struct.std::__1::pair.213" = type { i32, %"class.std::__1::basic_string" }
%"class.std::runtime_error" = type { %"class.std::exception", %"class.std::__1::__libcpp_refstring" }
%"struct.std::__1::__hash_value_type.263" = type { %"struct.std::__1::pair.213" }
%"struct.std::__1::pair.265" = type <{ %"class.std::__1::__hash_iterator.266", i8, [7 x i8] }>
%"class.std::__1::__hash_iterator.266" = type { %"struct.std::__1::__hash_node_base.118"* }
%"struct.std::__1::vector<LL2W::Type *, std::__1::allocator<LL2W::Type *> >::__RAII_IncreaseAnnotator" = type { i8 }
%"class.std::__1::allocator.184" = type { i8 }
%"struct.std::__1::vector<LL2W::Constant *, std::__1::allocator<LL2W::Constant *> >::__RAII_IncreaseAnnotator" = type { i8 }
%"class.std::__1::allocator.170" = type { i8 }
%"struct.std::__1::vector<int, std::__1::allocator<int> >::__RAII_IncreaseAnnotator" = type { i8 }
%"class.std::__1::allocator.177" = type { i8 }
%"class.std::__1::__wrap_iter" = type { %"struct.LL2W::Constant"** }
%"class.std::__1::__wrap_iter.217" = type { %"struct.LL2W::Type"** }
%"struct.LL2W::CallNode" = type { %"class.LL2W::CallInvokeNode", %"class.std::__1::basic_string"*, %"class.std::__1::unordered_set" }
%"class.std::__1::__wrap_iter.218" = type { %"struct.LL2W::Type"** }
%"class.std::__1::__wrap_iter.219" = type { %"struct.LL2W::Constant"** }
%"struct.std::__1::__hash_node.239" = type <{ %"struct.std::__1::__hash_node_base.118", i64, i32, [4 x i8] }>
%"struct.LL2W::InvokeNode" = type { %"class.LL2W::CallInvokeNode", %"class.std::__1::basic_string"*, %"class.std::__1::basic_string"* }
%"struct.LL2W::GetelementptrNode" = type { %"struct.LL2W::InstructionNode", %"class.std::__1::basic_string"*, %"class.std::__1::basic_string"*, i8, %"struct.LL2W::Type"*, %"struct.LL2W::Type"*, %"class.std::__1::vector.220" }
%"class.std::__1::vector.220" = type { %"class.std::__1::__vector_base.221" }
%"class.std::__1::__vector_base.221" = type { %"class.std::__1::tuple"*, %"class.std::__1::tuple"*, %"class.std::__1::__compressed_pair.224" }
%"class.std::__1::tuple" = type { %"struct.std::__1::__tuple_impl" }
%"struct.std::__1::__tuple_impl" = type <{ %"class.std::__1::__tuple_leaf", %"class.std::__1::__tuple_leaf.222", %"class.std::__1::__tuple_leaf.223", [3 x i8] }>
%"class.std::__1::__tuple_leaf" = type { i32 }
%"class.std::__1::__tuple_leaf.222" = type { i32 }
%"class.std::__1::__tuple_leaf.223" = type { i8 }
%"class.std::__1::__compressed_pair.224" = type { %"struct.std::__1::__compressed_pair_elem.225" }
%"struct.std::__1::__compressed_pair_elem.225" = type { %"class.std::__1::tuple"* }
%"struct.std::__1::vector<std::__1::tuple<int, int, bool>, std::__1::allocator<std::__1::tuple<int, int, bool> > >::__RAII_IncreaseAnnotator" = type { i8 }
%"class.std::__1::allocator.227" = type { i8 }
%"class.std::__1::__wrap_iter.229" = type { %"class.std::__1::tuple"* }
%"struct.LL2W::RetNode" = type { %"struct.LL2W::InstructionNode", %"struct.LL2W::Type"*, %"struct.LL2W::Value"* }
%"struct.LL2W::VoidType" = type { %"struct.LL2W::Type" }
%"struct.LL2W::VoidValue" = type { %"struct.LL2W::Value" }
%"struct.LL2W::LandingpadNode::Clause" = type { i32, %"struct.LL2W::Type"*, %"struct.LL2W::Value"* }
%"struct.LL2W::LandingpadNode" = type { %"struct.LL2W::InstructionNode", %"class.std::__1::basic_string"*, %"struct.LL2W::Type"*, i8, %"class.std::__1::vector.230" }
%"class.std::__1::vector.230" = type { %"class.std::__1::__vector_base.231" }
%"class.std::__1::__vector_base.231" = type { %"struct.LL2W::LandingpadNode::Clause"**, %"struct.LL2W::LandingpadNode::Clause"**, %"class.std::__1::__compressed_pair.232" }
%"class.std::__1::__compressed_pair.232" = type { %"struct.std::__1::__compressed_pair_elem.233" }
%"struct.std::__1::__compressed_pair_elem.233" = type { %"struct.LL2W::LandingpadNode::Clause"** }
%"struct.std::__1::vector<LL2W::LandingpadNode::Clause *, std::__1::allocator<LL2W::LandingpadNode::Clause *> >::__RAII_IncreaseAnnotator" = type { i8 }
%"class.std::__1::allocator.235" = type { i8 }
%"class.std::__1::__wrap_iter.237" = type { %"struct.LL2W::LandingpadNode::Clause"** }
%"class.std::__1::__wrap_iter.238" = type { %"struct.LL2W::LandingpadNode::Clause"** }
%"class.std::__1::allocator.17" = type { i8 }
%"struct.std::__1::integral_constant" = type { i8 }
%"struct.std::__1::__has_destroy" = type { i8 }
%"struct.std::__1::__compressed_pair_elem.16" = type { i8 }
%"class.std::__1::allocator.12" = type { i8 }
%"struct.std::__1::__compressed_pair_elem.11" = type { i8 }
%"class.std::__1::basic_istream" = type { i32 (...)**, i64, %"class.std::__1::basic_ios.base" }
%"class.std::__1::fpos" = type { %union.__mbstate_t, i64 }
%union.__mbstate_t = type { i64, [120 x i8] }
%"struct.std::__1::basic_string<char, std::__1::char_traits<char>, std::__1::allocator<char> >::__short" = type { %union.anon.0, [23 x i8] }
%union.anon.0 = type { i8 }
%"struct.std::__1::__less" = type { i8 }
%"class.std::__1::allocator.128" = type { i8 }
%"struct.std::__1::__has_destroy.241" = type { i8 }
%"struct.std::__1::__compressed_pair_elem.127" = type { i8 }
%"class.std::__1::allocator.123" = type { i8 }
%"struct.std::__1::__compressed_pair_elem.122" = type { i8 }
%"struct.std::__1::__tuple_indices" = type { i8 }
%"struct.std::__1::__tuple_types" = type { i8 }
%"struct.std::__1::__tuple_indices.242" = type { i8 }
%"struct.std::__1::__tuple_types.243" = type { i8 }
%"class.std::__1::__basic_string_common" = type { i8 }
%"struct.std::__1::__compressed_pair_elem.1" = type { i8 }
%"struct.std::__1::integral_constant.244" = type { i8 }
%"struct.std::__1::__has_destroy.245" = type { i8 }
%"struct.std::__1::__compressed_pair_elem.183" = type { i8 }
%"struct.std::__1::basic_string<char, std::__1::char_traits<char>, std::__1::allocator<char> >::__raw" = type { [3 x i64] }
%"struct.std::__1::__compressed_pair_elem.20" = type { i8 }
%"struct.std::__1::__compressed_pair_elem.23" = type { i8 }
%"struct.std::__1::__hash_node.246" = type { %"struct.std::__1::__hash_node_base.28", i64, %"struct.std::__1::__hash_value_type" }
%"class.std::__1::unique_ptr.250" = type { %"class.std::__1::__compressed_pair.251" }
%"class.std::__1::__compressed_pair.251" = type { %"struct.std::__1::__compressed_pair_elem.252", %"struct.std::__1::__compressed_pair_elem.253" }
%"struct.std::__1::__compressed_pair_elem.252" = type { %"struct.std::__1::__hash_node"* }
%"struct.std::__1::__compressed_pair_elem.253" = type { %"class.std::__1::__hash_node_destructor" }
%"class.std::__1::__hash_node_destructor" = type <{ %"class.std::__1::allocator.17"*, i8, [7 x i8] }>
%"struct.std::__1::hash" = type { i8 }
%"struct.std::__1::__enum_hash" = type { i8 }
%"struct.std::__1::equal_to" = type { i8 }
%"struct.std::__1::hash.254" = type { i8 }
%"struct.std::__1::unary_function.255" = type { i8 }
%"struct.std::__1::__less.256" = type { i8 }
%"struct.std::__1::__has_construct" = type { i8 }
%"class.std::length_error" = type { %"class.std::logic_error" }
%"class.std::__1::basic_ostream<char, std::__1::char_traits<char> >::sentry" = type { i8, %"class.std::__1::basic_ostream"* }
%"class.std::__1::ostreambuf_iterator" = type { %"class.std::__1::basic_streambuf"* }
%"struct.std::__1::iterator" = type { i8 }
%"class.std::__1::ctype" = type <{ %"class.std::__1::locale::facet", i32*, i8, [7 x i8] }>
%"class.std::__1::locale::facet" = type { %"class.std::__1::__shared_count" }
%"class.std::__1::__shared_count" = type { i32 (...)**, i64 }
%"class.std::__1::__unordered_map_hasher" = type { i8 }
%"class.std::__1::__unordered_map_equal" = type { i8 }
%"struct.std::__1::__compressed_pair_elem.41" = type { i8 }
%"struct.std::__1::__compressed_pair_elem.43" = type { i8 }
%"struct.std::__1::__second_tag" = type { i8 }
%"struct.std::__1::random_access_iterator_tag" = type { i8 }
%"struct.std::__1::__has_max_size" = type { i8 }
%"struct.std::__1::__hash_node.258" = type { %"struct.std::__1::__hash_node_base.52", i64, %"struct.std::__1::__hash_value_type.257" }
%"class.std::__1::__unordered_map_hasher.66" = type { i8 }
%"class.std::__1::__unordered_map_equal.72" = type { i8 }
%"struct.std::__1::hash.67" = type { i8 }
%"struct.std::__1::__enum_hash.68" = type { i8 }
%"struct.std::__1::equal_to.73" = type { i8 }
%"struct.std::__1::__compressed_pair_elem.65" = type { i8 }
%"struct.std::__1::__compressed_pair_elem.71" = type { i8 }
%"struct.std::__1::__hash_node.260" = type { %"struct.std::__1::__hash_node_base.85", i64, %"struct.std::__1::__hash_value_type.259" }
%"class.std::__1::__unordered_map_hasher.99" = type { i8 }
%"class.std::__1::__unordered_map_equal.105" = type { i8 }
%"struct.std::__1::hash.100" = type { i8 }
%"struct.std::__1::__enum_hash.101" = type { i8 }
%"struct.std::__1::equal_to.106" = type { i8 }
%"struct.std::__1::__compressed_pair_elem.98" = type { i8 }
%"struct.std::__1::__compressed_pair_elem.104" = type { i8 }
%"struct.std::__1::__compressed_pair_elem.131" = type { i8 }
%"struct.std::__1::__compressed_pair_elem.136" = type { i8 }
%"class.std::__1::__vector_base_common" = type { i8 }
%"struct.std::__1::__compressed_pair_elem.169" = type { i8 }
%"struct.std::__1::__compressed_pair_elem.176" = type { i8 }
%"struct.std::__1::__has_destroy.261" = type { i8 }
%"struct.std::__1::__has_destroy.262" = type { i8 }
%"struct.std::__1::__hash_node.264" = type { %"struct.std::__1::__hash_node_base.191", i64, %"struct.std::__1::__hash_value_type.263" }
%"class.std::__1::unique_ptr.268" = type { %"class.std::__1::__compressed_pair.269" }
%"class.std::__1::__compressed_pair.269" = type { %"struct.std::__1::__compressed_pair_elem.270", %"struct.std::__1::__compressed_pair_elem.271" }
%"struct.std::__1::__compressed_pair_elem.270" = type { %"struct.std::__1::__hash_node.239"* }
%"struct.std::__1::__compressed_pair_elem.271" = type { %"class.std::__1::__hash_node_destructor.272" }
%"class.std::__1::__hash_node_destructor.272" = type <{ %"class.std::__1::allocator.128"*, i8, [7 x i8] }>
%"struct.std::__1::hash.132" = type { i8 }
%"struct.std::__1::__enum_hash.133" = type { i8 }
%"struct.std::__1::equal_to.137" = type { i8 }
%"struct.std::__1::__has_construct.274" = type { i8 }
%"struct.std::__1::__has_construct.275" = type { i8 }
%"struct.std::__1::__split_buffer" = type { %"struct.LL2W::Type"**, %"struct.LL2W::Type"**, %"struct.LL2W::Type"**, %"class.std::__1::__compressed_pair.276" }
%"class.std::__1::__compressed_pair.276" = type { %"struct.std::__1::__compressed_pair_elem.182", %"struct.std::__1::__compressed_pair_elem.277" }
%"struct.std::__1::__compressed_pair_elem.277" = type { %"class.std::__1::allocator.184"* }
%"struct.std::__1::__has_max_size.278" = type { i8 }
%"class.std::__1::__split_buffer_common" = type { i8 }
%"struct.std::__1::__has_construct.279" = type { i8 }
%"struct.std::__1::__split_buffer.280" = type { %"struct.LL2W::Constant"**, %"struct.LL2W::Constant"**, %"struct.LL2W::Constant"**, %"class.std::__1::__compressed_pair.281" }
%"class.std::__1::__compressed_pair.281" = type { %"struct.std::__1::__compressed_pair_elem.168", %"struct.std::__1::__compressed_pair_elem.282" }
%"struct.std::__1::__compressed_pair_elem.282" = type { %"class.std::__1::allocator.170"* }
%"struct.std::__1::__has_max_size.283" = type { i8 }
%"struct.std::__1::__has_construct.284" = type { i8 }
%"struct.std::__1::__split_buffer.285" = type { i32*, i32*, i32*, %"class.std::__1::__compressed_pair.286" }
%"class.std::__1::__compressed_pair.286" = type { %"struct.std::__1::__compressed_pair_elem.175", %"struct.std::__1::__compressed_pair_elem.287" }
%"struct.std::__1::__compressed_pair_elem.287" = type { %"class.std::__1::allocator.177"* }
%"struct.std::__1::__has_max_size.288" = type { i8 }
%"class.std::__1::__unordered_map_hasher.205" = type { i8 }
%"class.std::__1::__unordered_map_equal.208" = type { i8 }
%"struct.std::__1::__compressed_pair_elem.204" = type { i8 }
%"struct.std::__1::__compressed_pair_elem.207" = type { i8 }
%"struct.std::__1::__compressed_pair_elem.226" = type { i8 }
%"struct.std::__1::__has_destroy.289" = type { i8 }
%"struct.std::__1::__has_construct.290" = type { i8 }
%"struct.std::__1::__split_buffer.291" = type { %"class.std::__1::tuple"*, %"class.std::__1::tuple"*, %"class.std::__1::tuple"*, %"class.std::__1::__compressed_pair.292" }
%"class.std::__1::__compressed_pair.292" = type { %"struct.std::__1::__compressed_pair_elem.225", %"struct.std::__1::__compressed_pair_elem.293" }
%"struct.std::__1::__compressed_pair_elem.293" = type { %"class.std::__1::allocator.227"* }
%"struct.std::__1::__has_max_size.294" = type { i8 }
%"struct.std::__1::__compressed_pair_elem.234" = type { i8 }
%"struct.std::__1::__has_destroy.295" = type { i8 }
%"struct.std::__1::__has_construct.296" = type { i8 }
%"struct.std::__1::__split_buffer.297" = type { %"struct.LL2W::LandingpadNode::Clause"**, %"struct.LL2W::LandingpadNode::Clause"**, %"struct.LL2W::LandingpadNode::Clause"**, %"class.std::__1::__compressed_pair.298" }
%"class.std::__1::__compressed_pair.298" = type { %"struct.std::__1::__compressed_pair_elem.233", %"struct.std::__1::__compressed_pair_elem.299" }
%"struct.std::__1::__compressed_pair_elem.299" = type { %"class.std::__1::allocator.235"* }
%"struct.std::__1::__has_max_size.300" = type { i8 }

@_ZTVN4LL2W10SelectNodeE = unnamed_addr constant { [6 x i8*] } { [6 x i8*] [i8* null, i8* bitcast ({ i8*, i8*, i8* }* @_ZTIN4LL2W10SelectNodeE to i8*), i8* bitcast (void (%"struct.LL2W::SelectNode"*)* @_ZN4LL2W10SelectNodeD1Ev to i8*), i8* bitcast (void (%"struct.LL2W::SelectNode"*)* @_ZN4LL2W10SelectNodeD0Ev to i8*), i8* bitcast (void (%"class.std::__1::basic_string"*, %"struct.LL2W::SelectNode"*)* @_ZNK4LL2W10SelectNode10debugExtraEv to i8*), i8* bitcast (void (%"class.std::__1::basic_string"*, %"struct.LL2W::InstructionNode"*)* @_ZNK4LL2W15InstructionNode5styleEv to i8*)] }, align 8
@_ZN4LL2W12fastmath_mapE = external global %"class.std::__1::unordered_map", align 8
@.str = private unnamed_addr constant [7 x i8] c"\1B[32m%\00", align 1
@.str.1 = private unnamed_addr constant [34 x i8] c" \1B[2m= \1B[0;91mselect\1B[0;38;5;202m\00", align 1
@.str.2 = private unnamed_addr constant [2 x i8] c" \00", align 1
@.str.3 = private unnamed_addr constant [11 x i8] c"\1B[2m,\1B[0m \00", align 1
@_ZTVN4LL2W10AllocaNodeE = unnamed_addr constant { [6 x i8*] } { [6 x i8*] [i8* null, i8* bitcast ({ i8*, i8*, i8* }* @_ZTIN4LL2W10AllocaNodeE to i8*), i8* bitcast (void (%"struct.LL2W::AllocaNode"*)* @_ZN4LL2W10AllocaNodeD1Ev to i8*), i8* bitcast (void (%"struct.LL2W::AllocaNode"*)* @_ZN4LL2W10AllocaNodeD0Ev to i8*), i8* bitcast (void (%"class.std::__1::basic_string"*, %"struct.LL2W::AllocaNode"*)* @_ZNK4LL2W10AllocaNode10debugExtraEv to i8*), i8* bitcast (void (%"class.std::__1::basic_string"*, %"struct.LL2W::InstructionNode"*)* @_ZNK4LL2W15InstructionNode5styleEv to i8*)] }, align 8
@.str.4 = private unnamed_addr constant [27 x i8] c"\1B[0;2m = \1B[0;91malloca\1B[0m\00", align 1
@.str.5 = private unnamed_addr constant [25 x i8] c" \1B[38;5;202minalloca\1B[0m\00", align 1
@.str.6 = private unnamed_addr constant [24 x i8] c"\1B[2m,\1B[0;34m align\1B[0m \00", align 1
@.str.7 = private unnamed_addr constant [28 x i8] c"\1B[2m,\1B[0;34m addrspace\1B[0m(\00", align 1
@.str.8 = private unnamed_addr constant [2 x i8] c")\00", align 1
@_ZTVN4LL2W9StoreNodeE = unnamed_addr constant { [6 x i8*] } { [6 x i8*] [i8* null, i8* bitcast ({ i8*, i8*, i8* }* @_ZTIN4LL2W9StoreNodeE to i8*), i8* bitcast (void (%"struct.LL2W::StoreNode"*)* @_ZN4LL2W9StoreNodeD1Ev to i8*), i8* bitcast (void (%"struct.LL2W::StoreNode"*)* @_ZN4LL2W9StoreNodeD0Ev to i8*), i8* bitcast (void (%"class.std::__1::basic_string"*, %"struct.LL2W::StoreNode"*)* @_ZNK4LL2W9StoreNode10debugExtraEv to i8*), i8* bitcast (void (%"class.std::__1::basic_string"*, %"struct.LL2W::InstructionNode"*)* @_ZNK4LL2W15InstructionNode5styleEv to i8*)] }, align 8
@_ZN4LL2W12ordering_mapE = external global %"class.std::__1::unordered_map.47", align 8
@.str.9 = private unnamed_addr constant [15 x i8] c"\1B[91mstore\1B[0m\00", align 1
@.str.10 = private unnamed_addr constant [23 x i8] c" \1B[38;5;202matomic\1B[0m\00", align 1
@.str.11 = private unnamed_addr constant [25 x i8] c" \1B[38;5;202mvolatile\1B[0m\00", align 1
@.str.12 = private unnamed_addr constant [6 x i8] c"\1B[0m \00", align 1
@.str.13 = private unnamed_addr constant [8 x i8] c" \1B[32m%\00", align 1
@.str.14 = private unnamed_addr constant [5 x i8] c"\1B[0m\00", align 1
@.str.15 = private unnamed_addr constant [28 x i8] c" \1B[34msyncscope\1B[0;2m(\1B[0m\22\00", align 1
@.str.16 = private unnamed_addr constant [11 x i8] c"\22\1B[2m)\1B[0m\00", align 1
@.str.17 = private unnamed_addr constant [24 x i8] c"\1B[2m,\1B[0;34m align \1B[0m\00", align 1
@.str.18 = private unnamed_addr constant [31 x i8] c"\1B[2m,\1B[0;34m !nontemporal \1B[0m\00", align 1
@.str.19 = private unnamed_addr constant [35 x i8] c"\1B[2m,\1B[0;34m !invariant.group \1B[0m\00", align 1
@_ZTVN4LL2W8LoadNodeE = unnamed_addr constant { [6 x i8*] } { [6 x i8*] [i8* null, i8* bitcast ({ i8*, i8*, i8* }* @_ZTIN4LL2W8LoadNodeE to i8*), i8* bitcast (void (%"struct.LL2W::LoadNode"*)* @_ZN4LL2W8LoadNodeD1Ev to i8*), i8* bitcast (void (%"struct.LL2W::LoadNode"*)* @_ZN4LL2W8LoadNodeD0Ev to i8*), i8* bitcast (void (%"class.std::__1::basic_string"*, %"struct.LL2W::LoadNode"*)* @_ZNK4LL2W8LoadNode10debugExtraEv to i8*), i8* bitcast (void (%"class.std::__1::basic_string"*, %"struct.LL2W::InstructionNode"*)* @_ZNK4LL2W15InstructionNode5styleEv to i8*)] }, align 8
@.str.20 = private unnamed_addr constant [25 x i8] c"\1B[0;2m = \1B[0;91mload\1B[0m\00", align 1
@.str.21 = private unnamed_addr constant [13 x i8] c" \1B[38;5;202m\00", align 1
@_ZTVN4LL2W8IcmpNodeE = unnamed_addr constant { [6 x i8*] } { [6 x i8*] [i8* null, i8* bitcast ({ i8*, i8*, i8* }* @_ZTIN4LL2W8IcmpNodeE to i8*), i8* bitcast (void (%"struct.LL2W::IcmpNode"*)* @_ZN4LL2W8IcmpNodeD1Ev to i8*), i8* bitcast (void (%"struct.LL2W::IcmpNode"*)* @_ZN4LL2W8IcmpNodeD0Ev to i8*), i8* bitcast (void (%"class.std::__1::basic_string"*, %"struct.LL2W::IcmpNode"*)* @_ZNK4LL2W8IcmpNode10debugExtraEv to i8*), i8* bitcast (void (%"class.std::__1::basic_string"*, %"struct.LL2W::InstructionNode"*)* @_ZNK4LL2W15InstructionNode5styleEv to i8*)] }, align 8
@_ZN4LL2W8cond_mapE = external global %"class.std::__1::unordered_map.80", align 8
@.str.22 = private unnamed_addr constant [26 x i8] c"\1B[0;2m = \1B[0;91micmp\1B[0m \00", align 1
@.str.23 = private unnamed_addr constant [3 x i8] c", \00", align 1
@.str.24 = private unnamed_addr constant [27 x i8] c"\1B[91mbr\1B[0;34m label \1B[32m\00", align 1
@_ZTVN4LL2W10BrCondNodeE = unnamed_addr constant { [6 x i8*] } { [6 x i8*] [i8* null, i8* bitcast ({ i8*, i8*, i8* }* @_ZTIN4LL2W10BrCondNodeE to i8*), i8* bitcast (void (%"struct.LL2W::BrCondNode"*)* @_ZN4LL2W10BrCondNodeD1Ev to i8*), i8* bitcast (void (%"struct.LL2W::BrCondNode"*)* @_ZN4LL2W10BrCondNodeD0Ev to i8*), i8* bitcast (void (%"class.std::__1::basic_string"*, %"struct.LL2W::BrCondNode"*)* @_ZNK4LL2W10BrCondNode10debugExtraEv to i8*), i8* bitcast (void (%"class.std::__1::basic_string"*, %"struct.LL2W::InstructionNode"*)* @_ZNK4LL2W15InstructionNode5styleEv to i8*)] }, align 8
@.str.25 = private unnamed_addr constant [3 x i8] c"i1\00", align 1
@.str.26 = private unnamed_addr constant [34 x i8] c"Expected i1 for br condition type\00", align 1
@.str.27 = private unnamed_addr constant [22 x i8] c"\1B[91mbr \1B[33mi1\1B[39m \00", align 1
@.str.28 = private unnamed_addr constant [14 x i8] c", label \1B[32m\00", align 1
@.str.29 = private unnamed_addr constant [19 x i8] c"\1B[39m, label \1B[32m\00", align 1
@.str.30 = private unnamed_addr constant [6 x i8] c"\1B[39m\00", align 1
@_ZTVN4LL2W14CallInvokeNodeE = unnamed_addr constant { [6 x i8*] } { [6 x i8*] [i8* null, i8* bitcast ({ i8*, i8*, i8* }* @_ZTIN4LL2W14CallInvokeNodeE to i8*), i8* bitcast (void (%"class.LL2W::CallInvokeNode"*)* @_ZN4LL2W14CallInvokeNodeD1Ev to i8*), i8* bitcast (void (%"class.LL2W::CallInvokeNode"*)* @_ZN4LL2W14CallInvokeNodeD0Ev to i8*), i8* bitcast (void (%"class.std::__1::basic_string"*, %"class.LL2W::ASTNode"*)* @_ZNK4LL2W7ASTNode10debugExtraEv to i8*), i8* bitcast (void (%"class.std::__1::basic_string"*, %"struct.LL2W::InstructionNode"*)* @_ZNK4LL2W15InstructionNode5styleEv to i8*)] }, align 8
@.str.31 = private unnamed_addr constant [16 x i8] c"dereferenceable\00", align 1
@_ZN4LL2W11retattr_mapE = external global %"class.std::__1::unordered_map.186", align 8
@_ZTVN10__cxxabiv117__class_type_infoE = external global i8*
@_ZTSN4LL2W5ValueE = linkonce_odr constant [14 x i8] c"N4LL2W5ValueE\00", align 1
@_ZTIN4LL2W5ValueE = linkonce_odr constant { i8*, i8* } { i8* bitcast (i8** getelementptr inbounds (i8*, i8** @_ZTVN10__cxxabiv117__class_type_infoE, i64 2) to i8*), i8* getelementptr inbounds ([14 x i8], [14 x i8]* @_ZTSN4LL2W5ValueE, i32 0, i32 0) }, align 8
@_ZTVN10__cxxabiv120__si_class_type_infoE = external global i8*
@_ZTSN4LL2W13VariableValueE = linkonce_odr constant [23 x i8] c"N4LL2W13VariableValueE\00", align 1
@_ZTIN4LL2W13VariableValueE = linkonce_odr constant { i8*, i8*, i8* } { i8* bitcast (i8** getelementptr inbounds (i8*, i8** @_ZTVN10__cxxabiv120__si_class_type_infoE, i64 2) to i8*), i8* getelementptr inbounds ([23 x i8], [23 x i8]* @_ZTSN4LL2W13VariableValueE, i32 0, i32 0), i8* bitcast ({ i8*, i8* }* @_ZTIN4LL2W5ValueE to i8*) }, align 8
@.str.32 = private unnamed_addr constant [47 x i8] c"Function name isn't a global or local variable\00", align 1
@_ZTISt13runtime_error = external constant i8*
@_ZTVN4LL2W8CallNodeE = unnamed_addr constant { [6 x i8*] } { [6 x i8*] [i8* null, i8* bitcast ({ i8*, i8*, i8* }* @_ZTIN4LL2W8CallNodeE to i8*), i8* bitcast (void (%"struct.LL2W::CallNode"*)* @_ZN4LL2W8CallNodeD1Ev to i8*), i8* bitcast (void (%"struct.LL2W::CallNode"*)* @_ZN4LL2W8CallNodeD0Ev to i8*), i8* bitcast (void (%"class.std::__1::basic_string"*, %"struct.LL2W::CallNode"*)* @_ZNK4LL2W8CallNode10debugExtraEv to i8*), i8* bitcast (void (%"class.std::__1::basic_string"*, %"struct.LL2W::InstructionNode"*)* @_ZNK4LL2W15InstructionNode5styleEv to i8*)] }, align 8
@.str.33 = private unnamed_addr constant [10 x i8] c"\1B[0;2m = \00", align 1
@.str.34 = private unnamed_addr constant [8 x i8] c"\1B[0;34m\00", align 1
@.str.35 = private unnamed_addr constant [16 x i8] c"\1B[0;91mcall\1B[0m\00", align 1
@.str.36 = private unnamed_addr constant [7 x i8] c" \1B[34m\00", align 1
@.str.37 = private unnamed_addr constant [13 x i8] c"\1B[0;2m .\1B[0m\00", align 1
@.str.38 = private unnamed_addr constant [33 x i8] c" \1B[34mdereferenceable\1B[0;2m(\1B[0m\00", align 1
@.str.39 = private unnamed_addr constant [10 x i8] c"\1B[2m)\1B[0m\00", align 1
@.str.40 = private unnamed_addr constant [13 x i8] c" \1B[0;2m.\1B[0m\00", align 1
@.str.41 = private unnamed_addr constant [27 x i8] c" \1B[34maddrspace\1B[0;2m(\1B[0m\00", align 1
@.str.42 = private unnamed_addr constant [13 x i8] c" \1B[1;2m(\1B[0m\00", align 1
@.str.43 = private unnamed_addr constant [11 x i8] c"\1B[2m, \1B[0m\00", align 1
@.str.44 = private unnamed_addr constant [5 x i8] c"\1B[2m\00", align 1
@.str.45 = private unnamed_addr constant [1 x i8] zeroinitializer, align 1
@.str.46 = private unnamed_addr constant [8 x i8] c"...\1B[0m\00", align 1
@.str.47 = private unnamed_addr constant [12 x i8] c"\1B[1;2m)\1B[0m\00", align 1
@.str.48 = private unnamed_addr constant [10 x i8] c"\1B[2m(\1B[0m\00", align 1
@_ZTVN4LL2W10InvokeNodeE = unnamed_addr constant { [6 x i8*] } { [6 x i8*] [i8* null, i8* bitcast ({ i8*, i8*, i8* }* @_ZTIN4LL2W10InvokeNodeE to i8*), i8* bitcast (void (%"struct.LL2W::InvokeNode"*)* @_ZN4LL2W10InvokeNodeD1Ev to i8*), i8* bitcast (void (%"struct.LL2W::InvokeNode"*)* @_ZN4LL2W10InvokeNodeD0Ev to i8*), i8* bitcast (void (%"class.std::__1::basic_string"*, %"struct.LL2W::InvokeNode"*)* @_ZNK4LL2W10InvokeNode10debugExtraEv to i8*), i8* bitcast (void (%"class.std::__1::basic_string"*, %"struct.LL2W::InstructionNode"*)* @_ZNK4LL2W15InstructionNode5styleEv to i8*)] }, align 8
@.str.49 = private unnamed_addr constant [18 x i8] c"\1B[0;91minvoke\1B[0m\00", align 1
@.str.50 = private unnamed_addr constant [29 x i8] c"\1B[2m)\1B[0;91m to \1B[34mlabel %\00", align 1
@.str.51 = private unnamed_addr constant [26 x i8] c" \1B[91munwind\1B[34m label %\00", align 1
@_ZTVN4LL2W17GetelementptrNodeE = unnamed_addr constant { [6 x i8*] } { [6 x i8*] [i8* null, i8* bitcast ({ i8*, i8*, i8* }* @_ZTIN4LL2W17GetelementptrNodeE to i8*), i8* bitcast (void (%"struct.LL2W::GetelementptrNode"*)* @_ZN4LL2W17GetelementptrNodeD1Ev to i8*), i8* bitcast (void (%"struct.LL2W::GetelementptrNode"*)* @_ZN4LL2W17GetelementptrNodeD0Ev to i8*), i8* bitcast (void (%"class.std::__1::basic_string"*, %"struct.LL2W::GetelementptrNode"*)* @_ZNK4LL2W17GetelementptrNode10debugExtraEv to i8*), i8* bitcast (void (%"class.std::__1::basic_string"*, %"struct.LL2W::InstructionNode"*)* @_ZNK4LL2W15InstructionNode5styleEv to i8*)] }, align 8
@.str.52 = private unnamed_addr constant [35 x i8] c" \1B[0;2m= \1B[0;91mgetelementptr\1B[0m \00", align 1
@.str.53 = private unnamed_addr constant [19 x i8] c"\1B[34minbounds\1B[0m \00", align 1
@.str.54 = private unnamed_addr constant [18 x i8] c"\1B[34minrange\1B[0m \00", align 1
@.str.55 = private unnamed_addr constant [7 x i8] c"\1B[33mi\00", align 1
@_ZTVN4LL2W7RetNodeE = unnamed_addr constant { [6 x i8*] } { [6 x i8*] [i8* null, i8* bitcast ({ i8*, i8*, i8* }* @_ZTIN4LL2W7RetNodeE to i8*), i8* bitcast (void (%"struct.LL2W::RetNode"*)* @_ZN4LL2W7RetNodeD1Ev to i8*), i8* bitcast (void (%"struct.LL2W::RetNode"*)* @_ZN4LL2W7RetNodeD0Ev to i8*), i8* bitcast (void (%"class.std::__1::basic_string"*, %"struct.LL2W::RetNode"*)* @_ZNK4LL2W7RetNode10debugExtraEv to i8*), i8* bitcast (void (%"class.std::__1::basic_string"*, %"struct.LL2W::InstructionNode"*)* @_ZNK4LL2W15InstructionNode5styleEv to i8*)] }, align 8
@.str.56 = private unnamed_addr constant [14 x i8] c"\1B[91mret\1B[0m \00", align 1
@.str.57 = private unnamed_addr constant [5 x i8] c"void\00", align 1
@.str.58 = private unnamed_addr constant [6 x i8] c"catch\00", align 1
@.str.59 = private unnamed_addr constant [7 x i8] c"filter\00", align 1
@_ZTVN4LL2W14LandingpadNodeE = unnamed_addr constant { [6 x i8*] } { [6 x i8*] [i8* null, i8* bitcast ({ i8*, i8*, i8* }* @_ZTIN4LL2W14LandingpadNodeE to i8*), i8* bitcast (void (%"struct.LL2W::LandingpadNode"*)* @_ZN4LL2W14LandingpadNodeD1Ev to i8*), i8* bitcast (void (%"struct.LL2W::LandingpadNode"*)* @_ZN4LL2W14LandingpadNodeD0Ev to i8*), i8* bitcast (void (%"class.std::__1::basic_string"*, %"struct.LL2W::LandingpadNode"*)* @_ZNK4LL2W14LandingpadNode10debugExtraEv to i8*), i8* bitcast (void (%"class.std::__1::basic_string"*, %"struct.LL2W::InstructionNode"*)* @_ZNK4LL2W15InstructionNode5styleEv to i8*)] }, align 8
@.str.60 = private unnamed_addr constant [32 x i8] c"\1B[0;2m = \1B[0;91mlandingpad\1B[0m \00", align 1
@.str.61 = private unnamed_addr constant [9 x i8] c" cleanup\00", align 1
@_ZTVN4LL2W12BrUncondNodeE = unnamed_addr constant { [6 x i8*] } { [6 x i8*] [i8* null, i8* bitcast ({ i8*, i8*, i8* }* @_ZTIN4LL2W12BrUncondNodeE to i8*), i8* bitcast (void (%"struct.LL2W::BrUncondNode"*)* @_ZN4LL2W12BrUncondNodeD1Ev to i8*), i8* bitcast (void (%"struct.LL2W::BrUncondNode"*)* @_ZN4LL2W12BrUncondNodeD0Ev to i8*), i8* bitcast (void (%"class.std::__1::basic_string"*, %"struct.LL2W::BrUncondNode"*)* @_ZNK4LL2W12BrUncondNode10debugExtraEv to i8*), i8* bitcast (void (%"class.std::__1::basic_string"*, %"struct.LL2W::InstructionNode"*)* @_ZNK4LL2W15InstructionNode5styleEv to i8*)] }, align 8
@_ZTSN4LL2W12BrUncondNodeE = constant [22 x i8] c"N4LL2W12BrUncondNodeE\00", align 1
@_ZTSN4LL2W15InstructionNodeE = linkonce_odr constant [25 x i8] c"N4LL2W15InstructionNodeE\00", align 1
@_ZTIN4LL2W7ASTNodeE = external constant i8*
@_ZTIN4LL2W15InstructionNodeE = linkonce_odr constant { i8*, i8*, i8* } { i8* bitcast (i8** getelementptr inbounds (i8*, i8** @_ZTVN10__cxxabiv120__si_class_type_infoE, i64 2) to i8*), i8* getelementptr inbounds ([25 x i8], [25 x i8]* @_ZTSN4LL2W15InstructionNodeE, i32 0, i32 0), i8* bitcast (i8** @_ZTIN4LL2W7ASTNodeE to i8*) }, align 8
@_ZTIN4LL2W12BrUncondNodeE = constant { i8*, i8*, i8* } { i8* bitcast (i8** getelementptr inbounds (i8*, i8** @_ZTVN10__cxxabiv120__si_class_type_infoE, i64 2) to i8*), i8* getelementptr inbounds ([22 x i8], [22 x i8]* @_ZTSN4LL2W12BrUncondNodeE, i32 0, i32 0), i8* bitcast ({ i8*, i8*, i8* }* @_ZTIN4LL2W15InstructionNodeE to i8*) }, align 8
@_ZTSN4LL2W10SelectNodeE = constant [20 x i8] c"N4LL2W10SelectNodeE\00", align 1
@_ZTIN4LL2W10SelectNodeE = constant { i8*, i8*, i8* } { i8* bitcast (i8** getelementptr inbounds (i8*, i8** @_ZTVN10__cxxabiv120__si_class_type_infoE, i64 2) to i8*), i8* getelementptr inbounds ([20 x i8], [20 x i8]* @_ZTSN4LL2W10SelectNodeE, i32 0, i32 0), i8* bitcast ({ i8*, i8*, i8* }* @_ZTIN4LL2W15InstructionNodeE to i8*) }, align 8
@_ZTSN4LL2W10AllocaNodeE = constant [20 x i8] c"N4LL2W10AllocaNodeE\00", align 1
@_ZTIN4LL2W10AllocaNodeE = constant { i8*, i8*, i8* } { i8* bitcast (i8** getelementptr inbounds (i8*, i8** @_ZTVN10__cxxabiv120__si_class_type_infoE, i64 2) to i8*), i8* getelementptr inbounds ([20 x i8], [20 x i8]* @_ZTSN4LL2W10AllocaNodeE, i32 0, i32 0), i8* bitcast ({ i8*, i8*, i8* }* @_ZTIN4LL2W15InstructionNodeE to i8*) }, align 8
@_ZTSN4LL2W9StoreNodeE = constant [18 x i8] c"N4LL2W9StoreNodeE\00", align 1
@_ZTIN4LL2W9StoreNodeE = constant { i8*, i8*, i8* } { i8* bitcast (i8** getelementptr inbounds (i8*, i8** @_ZTVN10__cxxabiv120__si_class_type_infoE, i64 2) to i8*), i8* getelementptr inbounds ([18 x i8], [18 x i8]* @_ZTSN4LL2W9StoreNodeE, i32 0, i32 0), i8* bitcast ({ i8*, i8*, i8* }* @_ZTIN4LL2W15InstructionNodeE to i8*) }, align 8
@_ZTSN4LL2W8LoadNodeE = constant [17 x i8] c"N4LL2W8LoadNodeE\00", align 1
@_ZTIN4LL2W8LoadNodeE = constant { i8*, i8*, i8* } { i8* bitcast (i8** getelementptr inbounds (i8*, i8** @_ZTVN10__cxxabiv120__si_class_type_infoE, i64 2) to i8*), i8* getelementptr inbounds ([17 x i8], [17 x i8]* @_ZTSN4LL2W8LoadNodeE, i32 0, i32 0), i8* bitcast ({ i8*, i8*, i8* }* @_ZTIN4LL2W15InstructionNodeE to i8*) }, align 8
@_ZTSN4LL2W8IcmpNodeE = constant [17 x i8] c"N4LL2W8IcmpNodeE\00", align 1
@_ZTIN4LL2W8IcmpNodeE = constant { i8*, i8*, i8* } { i8* bitcast (i8** getelementptr inbounds (i8*, i8** @_ZTVN10__cxxabiv120__si_class_type_infoE, i64 2) to i8*), i8* getelementptr inbounds ([17 x i8], [17 x i8]* @_ZTSN4LL2W8IcmpNodeE, i32 0, i32 0), i8* bitcast ({ i8*, i8*, i8* }* @_ZTIN4LL2W15InstructionNodeE to i8*) }, align 8
@_ZTSN4LL2W10BrCondNodeE = constant [20 x i8] c"N4LL2W10BrCondNodeE\00", align 1
@_ZTIN4LL2W10BrCondNodeE = constant { i8*, i8*, i8* } { i8* bitcast (i8** getelementptr inbounds (i8*, i8** @_ZTVN10__cxxabiv120__si_class_type_infoE, i64 2) to i8*), i8* getelementptr inbounds ([20 x i8], [20 x i8]* @_ZTSN4LL2W10BrCondNodeE, i32 0, i32 0), i8* bitcast ({ i8*, i8*, i8* }* @_ZTIN4LL2W15InstructionNodeE to i8*) }, align 8
@_ZTSN4LL2W14CallInvokeNodeE = constant [24 x i8] c"N4LL2W14CallInvokeNodeE\00", align 1
@_ZTIN4LL2W14CallInvokeNodeE = constant { i8*, i8*, i8* } { i8* bitcast (i8** getelementptr inbounds (i8*, i8** @_ZTVN10__cxxabiv120__si_class_type_infoE, i64 2) to i8*), i8* getelementptr inbounds ([24 x i8], [24 x i8]* @_ZTSN4LL2W14CallInvokeNodeE, i32 0, i32 0), i8* bitcast ({ i8*, i8*, i8* }* @_ZTIN4LL2W15InstructionNodeE to i8*) }, align 8
@_ZTSN4LL2W8CallNodeE = constant [17 x i8] c"N4LL2W8CallNodeE\00", align 1
@_ZTIN4LL2W8CallNodeE = constant { i8*, i8*, i8* } { i8* bitcast (i8** getelementptr inbounds (i8*, i8** @_ZTVN10__cxxabiv120__si_class_type_infoE, i64 2) to i8*), i8* getelementptr inbounds ([17 x i8], [17 x i8]* @_ZTSN4LL2W8CallNodeE, i32 0, i32 0), i8* bitcast ({ i8*, i8*, i8* }* @_ZTIN4LL2W14CallInvokeNodeE to i8*) }, align 8
@_ZTSN4LL2W10InvokeNodeE = constant [20 x i8] c"N4LL2W10InvokeNodeE\00", align 1
@_ZTIN4LL2W10InvokeNodeE = constant { i8*, i8*, i8* } { i8* bitcast (i8** getelementptr inbounds (i8*, i8** @_ZTVN10__cxxabiv120__si_class_type_infoE, i64 2) to i8*), i8* getelementptr inbounds ([20 x i8], [20 x i8]* @_ZTSN4LL2W10InvokeNodeE, i32 0, i32 0), i8* bitcast ({ i8*, i8*, i8* }* @_ZTIN4LL2W14CallInvokeNodeE to i8*) }, align 8
@_ZTSN4LL2W17GetelementptrNodeE = constant [27 x i8] c"N4LL2W17GetelementptrNodeE\00", align 1
@_ZTIN4LL2W17GetelementptrNodeE = constant { i8*, i8*, i8* } { i8* bitcast (i8** getelementptr inbounds (i8*, i8** @_ZTVN10__cxxabiv120__si_class_type_infoE, i64 2) to i8*), i8* getelementptr inbounds ([27 x i8], [27 x i8]* @_ZTSN4LL2W17GetelementptrNodeE, i32 0, i32 0), i8* bitcast ({ i8*, i8*, i8* }* @_ZTIN4LL2W15InstructionNodeE to i8*) }, align 8
@_ZTSN4LL2W7RetNodeE = constant [16 x i8] c"N4LL2W7RetNodeE\00", align 1
@_ZTIN4LL2W7RetNodeE = constant { i8*, i8*, i8* } { i8* bitcast (i8** getelementptr inbounds (i8*, i8** @_ZTVN10__cxxabiv120__si_class_type_infoE, i64 2) to i8*), i8* getelementptr inbounds ([16 x i8], [16 x i8]* @_ZTSN4LL2W7RetNodeE, i32 0, i32 0), i8* bitcast ({ i8*, i8*, i8* }* @_ZTIN4LL2W15InstructionNodeE to i8*) }, align 8
@_ZTSN4LL2W14LandingpadNodeE = constant [24 x i8] c"N4LL2W14LandingpadNodeE\00", align 1
@_ZTIN4LL2W14LandingpadNodeE = constant { i8*, i8*, i8* } { i8* bitcast (i8** getelementptr inbounds (i8*, i8** @_ZTVN10__cxxabiv120__si_class_type_infoE, i64 2) to i8*), i8* getelementptr inbounds ([24 x i8], [24 x i8]* @_ZTSN4LL2W14LandingpadNodeE, i32 0, i32 0), i8* bitcast ({ i8*, i8*, i8* }* @_ZTIN4LL2W15InstructionNodeE to i8*) }, align 8
@_ZTVN4LL2W15InstructionNodeE = linkonce_odr unnamed_addr constant { [6 x i8*] } { [6 x i8*] [i8* null, i8* bitcast ({ i8*, i8*, i8* }* @_ZTIN4LL2W15InstructionNodeE to i8*), i8* bitcast (void (%"struct.LL2W::InstructionNode"*)* @_ZN4LL2W15InstructionNodeD1Ev to i8*), i8* bitcast (void (%"struct.LL2W::InstructionNode"*)* @_ZN4LL2W15InstructionNodeD0Ev to i8*), i8* bitcast (void (%"class.std::__1::basic_string"*, %"class.LL2W::ASTNode"*)* @_ZNK4LL2W7ASTNode10debugExtraEv to i8*), i8* bitcast (void (%"class.std::__1::basic_string"*, %"struct.LL2W::InstructionNode"*)* @_ZNK4LL2W15InstructionNode5styleEv to i8*)] }, align 8
@_ZTVNSt3__118basic_stringstreamIcNS_11char_traitsIcEENS_9allocatorIcEEEE = linkonce_odr unnamed_addr constant { [5 x i8*], [5 x i8*], [5 x i8*] } { [5 x i8*] [i8* inttoptr (i64 128 to i8*), i8* null, i8* bitcast ({ i8*, i8*, i8* }* @_ZTINSt3__118basic_stringstreamIcNS_11char_traitsIcEENS_9allocatorIcEEEE to i8*), i8* bitcast (void (%"class.std::__1::basic_stringstream"*)* @_ZNSt3__118basic_stringstreamIcNS_11char_traitsIcEENS_9allocatorIcEEED1Ev to i8*), i8* bitcast (void (%"class.std::__1::basic_stringstream"*)* @_ZNSt3__118basic_stringstreamIcNS_11char_traitsIcEENS_9allocatorIcEEED0Ev to i8*)], [5 x i8*] [i8* inttoptr (i64 112 to i8*), i8* inttoptr (i64 -16 to i8*), i8* bitcast ({ i8*, i8*, i8* }* @_ZTINSt3__118basic_stringstreamIcNS_11char_traitsIcEENS_9allocatorIcEEEE to i8*), i8* bitcast (void (%"class.std::__1::basic_stringstream"*)* @_ZThn16_NSt3__118basic_stringstreamIcNS_11char_traitsIcEENS_9allocatorIcEEED1Ev to i8*), i8* bitcast (void (%"class.std::__1::basic_stringstream"*)* @_ZThn16_NSt3__118basic_stringstreamIcNS_11char_traitsIcEENS_9allocatorIcEEED0Ev to i8*)], [5 x i8*] [i8* inttoptr (i64 -128 to i8*), i8* inttoptr (i64 -128 to i8*), i8* bitcast ({ i8*, i8*, i8* }* @_ZTINSt3__118basic_stringstreamIcNS_11char_traitsIcEENS_9allocatorIcEEEE to i8*), i8* bitcast (void (%"class.std::__1::basic_stringstream"*)* @_ZTv0_n24_NSt3__118basic_stringstreamIcNS_11char_traitsIcEENS_9allocatorIcEEED1Ev to i8*), i8* bitcast (void (%"class.std::__1::basic_stringstream"*)* @_ZTv0_n24_NSt3__118basic_stringstreamIcNS_11char_traitsIcEENS_9allocatorIcEEED0Ev to i8*)] }, align 8
@_ZTTNSt3__118basic_stringstreamIcNS_11char_traitsIcEENS_9allocatorIcEEEE = linkonce_odr unnamed_addr constant [10 x i8*] [i8* bitcast (i8** getelementptr inbounds ({ [5 x i8*], [5 x i8*], [5 x i8*] }, { [5 x i8*], [5 x i8*], [5 x i8*] }* @_ZTVNSt3__118basic_stringstreamIcNS_11char_traitsIcEENS_9allocatorIcEEEE, i32 0, inrange i32 0, i32 3) to i8*), i8* bitcast (i8** getelementptr inbounds ({ [5 x i8*], [5 x i8*], [5 x i8*] }, { [5 x i8*], [5 x i8*], [5 x i8*] }* @_ZTCNSt3__118basic_stringstreamIcNS_11char_traitsIcEENS_9allocatorIcEEEE0_NS_14basic_iostreamIcS2_EE, i32 0, inrange i32 0, i32 3) to i8*), i8* bitcast (i8** getelementptr inbounds ({ [5 x i8*], [5 x i8*] }, { [5 x i8*], [5 x i8*] }* @_ZTCNSt3__118basic_stringstreamIcNS_11char_traitsIcEENS_9allocatorIcEEEE0_NS_13basic_istreamIcS2_EE, i32 0, inrange i32 0, i32 3) to i8*), i8* bitcast (i8** getelementptr inbounds ({ [5 x i8*], [5 x i8*] }, { [5 x i8*], [5 x i8*] }* @_ZTCNSt3__118basic_stringstreamIcNS_11char_traitsIcEENS_9allocatorIcEEEE0_NS_13basic_istreamIcS2_EE, i32 0, inrange i32 1, i32 3) to i8*), i8* bitcast (i8** getelementptr inbounds ({ [5 x i8*], [5 x i8*] }, { [5 x i8*], [5 x i8*] }* @_ZTCNSt3__118basic_stringstreamIcNS_11char_traitsIcEENS_9allocatorIcEEEE16_NS_13basic_ostreamIcS2_EE, i32 0, inrange i32 0, i32 3) to i8*), i8* bitcast (i8** getelementptr inbounds ({ [5 x i8*], [5 x i8*] }, { [5 x i8*], [5 x i8*] }* @_ZTCNSt3__118basic_stringstreamIcNS_11char_traitsIcEENS_9allocatorIcEEEE16_NS_13basic_ostreamIcS2_EE, i32 0, inrange i32 1, i32 3) to i8*), i8* bitcast (i8** getelementptr inbounds ({ [5 x i8*], [5 x i8*], [5 x i8*] }, { [5 x i8*], [5 x i8*], [5 x i8*] }* @_ZTCNSt3__118basic_stringstreamIcNS_11char_traitsIcEENS_9allocatorIcEEEE0_NS_14basic_iostreamIcS2_EE, i32 0, inrange i32 2, i32 3) to i8*), i8* bitcast (i8** getelementptr inbounds ({ [5 x i8*], [5 x i8*], [5 x i8*] }, { [5 x i8*], [5 x i8*], [5 x i8*] }* @_ZTCNSt3__118basic_stringstreamIcNS_11char_traitsIcEENS_9allocatorIcEEEE0_NS_14basic_iostreamIcS2_EE, i32 0, inrange i32 1, i32 3) to i8*), i8* bitcast (i8** getelementptr inbounds ({ [5 x i8*], [5 x i8*], [5 x i8*] }, { [5 x i8*], [5 x i8*], [5 x i8*] }* @_ZTVNSt3__118basic_stringstreamIcNS_11char_traitsIcEENS_9allocatorIcEEEE, i32 0, inrange i32 2, i32 3) to i8*), i8* bitcast (i8** getelementptr inbounds ({ [5 x i8*], [5 x i8*], [5 x i8*] }, { [5 x i8*], [5 x i8*], [5 x i8*] }* @_ZTVNSt3__118basic_stringstreamIcNS_11char_traitsIcEENS_9allocatorIcEEEE, i32 0, inrange i32 1, i32 3) to i8*)], align 8
@_ZTCNSt3__118basic_stringstreamIcNS_11char_traitsIcEENS_9allocatorIcEEEE0_NS_14basic_iostreamIcS2_EE = linkonce_odr unnamed_addr constant { [5 x i8*], [5 x i8*], [5 x i8*] } { [5 x i8*] [i8* inttoptr (i64 128 to i8*), i8* null, i8* bitcast (i8** @_ZTINSt3__114basic_iostreamIcNS_11char_traitsIcEEEE to i8*), i8* bitcast (void (%"class.std::__1::basic_iostream"*)* @_ZNSt3__114basic_iostreamIcNS_11char_traitsIcEEED1Ev to i8*), i8* bitcast (void (%"class.std::__1::basic_iostream"*)* @_ZNSt3__114basic_iostreamIcNS_11char_traitsIcEEED0Ev to i8*)], [5 x i8*] [i8* inttoptr (i64 112 to i8*), i8* inttoptr (i64 -16 to i8*), i8* bitcast (i8** @_ZTINSt3__114basic_iostreamIcNS_11char_traitsIcEEEE to i8*), i8* bitcast (void (%"class.std::__1::basic_iostream"*)* @_ZThn16_NSt3__114basic_iostreamIcNS_11char_traitsIcEEED1Ev to i8*), i8* bitcast (void (%"class.std::__1::basic_iostream"*)* @_ZThn16_NSt3__114basic_iostreamIcNS_11char_traitsIcEEED0Ev to i8*)], [5 x i8*] [i8* inttoptr (i64 -128 to i8*), i8* inttoptr (i64 -128 to i8*), i8* bitcast (i8** @_ZTINSt3__114basic_iostreamIcNS_11char_traitsIcEEEE to i8*), i8* bitcast (void (%"class.std::__1::basic_iostream"*)* @_ZTv0_n24_NSt3__114basic_iostreamIcNS_11char_traitsIcEEED1Ev to i8*), i8* bitcast (void (%"class.std::__1::basic_iostream"*)* @_ZTv0_n24_NSt3__114basic_iostreamIcNS_11char_traitsIcEEED0Ev to i8*)] }, align 8
@_ZTINSt3__114basic_iostreamIcNS_11char_traitsIcEEEE = external constant i8*
@_ZTCNSt3__118basic_stringstreamIcNS_11char_traitsIcEENS_9allocatorIcEEEE0_NS_13basic_istreamIcS2_EE = linkonce_odr unnamed_addr constant { [5 x i8*], [5 x i8*] } { [5 x i8*] [i8* inttoptr (i64 128 to i8*), i8* null, i8* bitcast (i8** @_ZTINSt3__113basic_istreamIcNS_11char_traitsIcEEEE to i8*), i8* bitcast (void (%"class.std::__1::basic_istream"*)* @_ZNSt3__113basic_istreamIcNS_11char_traitsIcEEED1Ev to i8*), i8* bitcast (void (%"class.std::__1::basic_istream"*)* @_ZNSt3__113basic_istreamIcNS_11char_traitsIcEEED0Ev to i8*)], [5 x i8*] [i8* inttoptr (i64 -128 to i8*), i8* inttoptr (i64 -128 to i8*), i8* bitcast (i8** @_ZTINSt3__113basic_istreamIcNS_11char_traitsIcEEEE to i8*), i8* bitcast (void (%"class.std::__1::basic_istream"*)* @_ZTv0_n24_NSt3__113basic_istreamIcNS_11char_traitsIcEEED1Ev to i8*), i8* bitcast (void (%"class.std::__1::basic_istream"*)* @_ZTv0_n24_NSt3__113basic_istreamIcNS_11char_traitsIcEEED0Ev to i8*)] }, align 8
@_ZTINSt3__113basic_istreamIcNS_11char_traitsIcEEEE = external constant i8*
@_ZTCNSt3__118basic_stringstreamIcNS_11char_traitsIcEENS_9allocatorIcEEEE16_NS_13basic_ostreamIcS2_EE = linkonce_odr unnamed_addr constant { [5 x i8*], [5 x i8*] } { [5 x i8*] [i8* inttoptr (i64 112 to i8*), i8* null, i8* bitcast (i8** @_ZTINSt3__113basic_ostreamIcNS_11char_traitsIcEEEE to i8*), i8* bitcast (void (%"class.std::__1::basic_ostream"*)* @_ZNSt3__113basic_ostreamIcNS_11char_traitsIcEEED1Ev to i8*), i8* bitcast (void (%"class.std::__1::basic_ostream"*)* @_ZNSt3__113basic_ostreamIcNS_11char_traitsIcEEED0Ev to i8*)], [5 x i8*] [i8* inttoptr (i64 -112 to i8*), i8* inttoptr (i64 -112 to i8*), i8* bitcast (i8** @_ZTINSt3__113basic_ostreamIcNS_11char_traitsIcEEEE to i8*), i8* bitcast (void (%"class.std::__1::basic_ostream"*)* @_ZTv0_n24_NSt3__113basic_ostreamIcNS_11char_traitsIcEEED1Ev to i8*), i8* bitcast (void (%"class.std::__1::basic_ostream"*)* @_ZTv0_n24_NSt3__113basic_ostreamIcNS_11char_traitsIcEEED0Ev to i8*)] }, align 8
@_ZTINSt3__113basic_ostreamIcNS_11char_traitsIcEEEE = external constant i8*
@_ZTSNSt3__118basic_stringstreamIcNS_11char_traitsIcEENS_9allocatorIcEEEE = linkonce_odr constant [69 x i8] c"NSt3__118basic_stringstreamIcNS_11char_traitsIcEENS_9allocatorIcEEEE\00", align 1
@_ZTINSt3__118basic_stringstreamIcNS_11char_traitsIcEENS_9allocatorIcEEEE = linkonce_odr constant { i8*, i8*, i8* } { i8* bitcast (i8** getelementptr inbounds (i8*, i8** @_ZTVN10__cxxabiv120__si_class_type_infoE, i64 2) to i8*), i8* getelementptr inbounds ([69 x i8], [69 x i8]* @_ZTSNSt3__118basic_stringstreamIcNS_11char_traitsIcEENS_9allocatorIcEEEE, i32 0, i32 0), i8* bitcast (i8** @_ZTINSt3__114basic_iostreamIcNS_11char_traitsIcEEEE to i8*) }, align 8
@_ZTVNSt3__115basic_stringbufIcNS_11char_traitsIcEENS_9allocatorIcEEEE = linkonce_odr unnamed_addr constant { [16 x i8*] } { [16 x i8*] [i8* null, i8* bitcast ({ i8*, i8*, i8* }* @_ZTINSt3__115basic_stringbufIcNS_11char_traitsIcEENS_9allocatorIcEEEE to i8*), i8* bitcast (void (%"class.std::__1::basic_stringbuf"*)* @_ZNSt3__115basic_stringbufIcNS_11char_traitsIcEENS_9allocatorIcEEED1Ev to i8*), i8* bitcast (void (%"class.std::__1::basic_stringbuf"*)* @_ZNSt3__115basic_stringbufIcNS_11char_traitsIcEENS_9allocatorIcEEED0Ev to i8*), i8* bitcast (void (%"class.std::__1::basic_streambuf"*, %"class.std::__1::locale"*)* @_ZNSt3__115basic_streambufIcNS_11char_traitsIcEEE5imbueERKNS_6localeE to i8*), i8* bitcast (%"class.std::__1::basic_streambuf"* (%"class.std::__1::basic_streambuf"*, i8*, i64)* @_ZNSt3__115basic_streambufIcNS_11char_traitsIcEEE6setbufEPcl to i8*), i8* bitcast (void (%"class.std::__1::fpos"*, %"class.std::__1::basic_stringbuf"*, i64, i32, i32)* @_ZNSt3__115basic_stringbufIcNS_11char_traitsIcEENS_9allocatorIcEEE7seekoffExNS_8ios_base7seekdirEj to i8*), i8* bitcast (void (%"class.std::__1::fpos"*, %"class.std::__1::basic_stringbuf"*, %"class.std::__1::fpos"*, i32)* @_ZNSt3__115basic_stringbufIcNS_11char_traitsIcEENS_9allocatorIcEEE7seekposENS_4fposI11__mbstate_tEEj to i8*), i8* bitcast (i32 (%"class.std::__1::basic_streambuf"*)* @_ZNSt3__115basic_streambufIcNS_11char_traitsIcEEE4syncEv to i8*), i8* bitcast (i64 (%"class.std::__1::basic_streambuf"*)* @_ZNSt3__115basic_streambufIcNS_11char_traitsIcEEE9showmanycEv to i8*), i8* bitcast (i64 (%"class.std::__1::basic_streambuf"*, i8*, i64)* @_ZNSt3__115basic_streambufIcNS_11char_traitsIcEEE6xsgetnEPcl to i8*), i8* bitcast (i32 (%"class.std::__1::basic_stringbuf"*)* @_ZNSt3__115basic_stringbufIcNS_11char_traitsIcEENS_9allocatorIcEEE9underflowEv to i8*), i8* bitcast (i32 (%"class.std::__1::basic_streambuf"*)* @_ZNSt3__115basic_streambufIcNS_11char_traitsIcEEE5uflowEv to i8*), i8* bitcast (i32 (%"class.std::__1::basic_stringbuf"*, i32)* @_ZNSt3__115basic_stringbufIcNS_11char_traitsIcEENS_9allocatorIcEEE9pbackfailEi to i8*), i8* bitcast (i64 (%"class.std::__1::basic_streambuf"*, i8*, i64)* @_ZNSt3__115basic_streambufIcNS_11char_traitsIcEEE6xsputnEPKcl to i8*), i8* bitcast (i32 (%"class.std::__1::basic_stringbuf"*, i32)* @_ZNSt3__115basic_stringbufIcNS_11char_traitsIcEENS_9allocatorIcEEE8overflowEi to i8*)] }, align 8
@_ZTSNSt3__115basic_stringbufIcNS_11char_traitsIcEENS_9allocatorIcEEEE = linkonce_odr constant [66 x i8] c"NSt3__115basic_stringbufIcNS_11char_traitsIcEENS_9allocatorIcEEEE\00", align 1
@_ZTINSt3__115basic_streambufIcNS_11char_traitsIcEEEE = external constant i8*
@_ZTINSt3__115basic_stringbufIcNS_11char_traitsIcEENS_9allocatorIcEEEE = linkonce_odr constant { i8*, i8*, i8* } { i8* bitcast (i8** getelementptr inbounds (i8*, i8** @_ZTVN10__cxxabiv120__si_class_type_infoE, i64 2) to i8*), i8* getelementptr inbounds ([66 x i8], [66 x i8]* @_ZTSNSt3__115basic_stringbufIcNS_11char_traitsIcEENS_9allocatorIcEEEE, i32 0, i32 0), i8* bitcast (i8** @_ZTINSt3__115basic_streambufIcNS_11char_traitsIcEEEE to i8*) }, align 8
@_ZTVN4LL2W8VoidTypeE = linkonce_odr unnamed_addr constant { [6 x i8*] } { [6 x i8*] [i8* null, i8* bitcast ({ i8*, i8*, i8* }* @_ZTIN4LL2W8VoidTypeE to i8*), i8* bitcast (void (%"class.std::__1::basic_string"*, %"struct.LL2W::VoidType"*)* @_ZN4LL2W8VoidTypecvNSt3__112basic_stringIcNS1_11char_traitsIcEENS1_9allocatorIcEEEEEv to i8*), i8* bitcast (void (%"struct.LL2W::VoidType"*)* @_ZN4LL2W8VoidTypeD1Ev to i8*), i8* bitcast (void (%"struct.LL2W::VoidType"*)* @_ZN4LL2W8VoidTypeD0Ev to i8*), i8* bitcast (%"struct.LL2W::Type"* (%"struct.LL2W::VoidType"*)* @_ZNK4LL2W8VoidType4copyEv to i8*)] }, align 8
@_ZTSN4LL2W8VoidTypeE = linkonce_odr constant [17 x i8] c"N4LL2W8VoidTypeE\00", align 1
@_ZTSN4LL2W4TypeE = linkonce_odr constant [13 x i8] c"N4LL2W4TypeE\00", align 1
@_ZTIN4LL2W4TypeE = linkonce_odr constant { i8*, i8* } { i8* bitcast (i8** getelementptr inbounds (i8*, i8** @_ZTVN10__cxxabiv117__class_type_infoE, i64 2) to i8*), i8* getelementptr inbounds ([13 x i8], [13 x i8]* @_ZTSN4LL2W4TypeE, i32 0, i32 0) }, align 8
@_ZTIN4LL2W8VoidTypeE = linkonce_odr constant { i8*, i8*, i8* } { i8* bitcast (i8** getelementptr inbounds (i8*, i8** @_ZTVN10__cxxabiv120__si_class_type_infoE, i64 2) to i8*), i8* getelementptr inbounds ([17 x i8], [17 x i8]* @_ZTSN4LL2W8VoidTypeE, i32 0, i32 0), i8* bitcast ({ i8*, i8* }* @_ZTIN4LL2W4TypeE to i8*) }, align 8
@_ZTVN4LL2W4TypeE = linkonce_odr unnamed_addr constant { [6 x i8*] } { [6 x i8*] [i8* null, i8* bitcast ({ i8*, i8* }* @_ZTIN4LL2W4TypeE to i8*), i8* bitcast (void ()* @__cxa_pure_virtual to i8*), i8* bitcast (void (%"struct.LL2W::Type"*)* @_ZN4LL2W4TypeD1Ev to i8*), i8* bitcast (void (%"struct.LL2W::Type"*)* @_ZN4LL2W4TypeD0Ev to i8*), i8* bitcast (void ()* @__cxa_pure_virtual to i8*)] }, align 8
@_ZTVN4LL2W9VoidValueE = linkonce_odr unnamed_addr constant { [6 x i8*] } { [6 x i8*] [i8* null, i8* bitcast ({ i8*, i8*, i8* }* @_ZTIN4LL2W9VoidValueE to i8*), i8* bitcast (void (%"class.std::__1::basic_string"*, %"struct.LL2W::VoidValue"*)* @_ZN4LL2W9VoidValuecvNSt3__112basic_stringIcNS1_11char_traitsIcEENS1_9allocatorIcEEEEEv to i8*), i8* bitcast (void (%"struct.LL2W::VoidValue"*)* @_ZN4LL2W9VoidValueD1Ev to i8*), i8* bitcast (void (%"struct.LL2W::VoidValue"*)* @_ZN4LL2W9VoidValueD0Ev to i8*), i8* bitcast (%"struct.LL2W::Value"* (%"struct.LL2W::VoidValue"*)* @_ZNK4LL2W9VoidValue4copyEv to i8*)] }, align 8
@_ZTSN4LL2W9VoidValueE = linkonce_odr constant [18 x i8] c"N4LL2W9VoidValueE\00", align 1
@_ZTIN4LL2W9VoidValueE = linkonce_odr constant { i8*, i8*, i8* } { i8* bitcast (i8** getelementptr inbounds (i8*, i8** @_ZTVN10__cxxabiv120__si_class_type_infoE, i64 2) to i8*), i8* getelementptr inbounds ([18 x i8], [18 x i8]* @_ZTSN4LL2W9VoidValueE, i32 0, i32 0), i8* bitcast ({ i8*, i8* }* @_ZTIN4LL2W5ValueE to i8*) }, align 8
@_ZTVN4LL2W5ValueE = linkonce_odr unnamed_addr constant { [6 x i8*] } { [6 x i8*] [i8* null, i8* bitcast ({ i8*, i8* }* @_ZTIN4LL2W5ValueE to i8*), i8* bitcast (void ()* @__cxa_pure_virtual to i8*), i8* bitcast (void (%"struct.LL2W::Value"*)* @_ZN4LL2W5ValueD1Ev to i8*), i8* bitcast (void (%"struct.LL2W::Value"*)* @_ZN4LL2W5ValueD0Ev to i8*), i8* bitcast (void ()* @__cxa_pure_virtual to i8*)] }, align 8
@.str.62 = private unnamed_addr constant [6 x i8] c"\1B[36m\00", align 1
@.str.63 = private unnamed_addr constant [68 x i8] c"allocator<T>::allocate(size_t n) 'n' exceeds maximum supported size\00", align 1
@_ZTISt12length_error = external constant i8*
@_ZTVSt12length_error = external unnamed_addr constant { [5 x i8*] }, align 8
@_ZTVNSt3__19basic_iosIcNS_11char_traitsIcEEEE = external unnamed_addr constant { [4 x i8*] }, align 8
@_ZTVNSt3__18ios_baseE = external unnamed_addr constant { [4 x i8*] }, align 8
@_ZNSt3__15ctypeIcE2idE = external global %"class.std::__1::locale::id", align 8
@.str.64 = private unnamed_addr constant [33 x i8] c"unordered_map::at: key not found\00", align 1
@_ZTISt12out_of_range = external constant i8*
@_ZTVSt12out_of_range = external unnamed_addr constant { [5 x i8*] }, align 8

; Function Attrs: noinline optnone ssp uwtable
define void @_ZN4LL2W10SelectNodeC2EPNS_7ASTNodeES2_S2_S2_S2_S2_S2_S2_(%"struct.LL2W::SelectNode"*, %"class.LL2W::ASTNode"*, %"class.LL2W::ASTNode"*, %"class.LL2W::ASTNode"*, %"class.LL2W::ASTNode"*, %"class.LL2W::ASTNode"*, %"class.LL2W::ASTNode"*, %"class.LL2W::ASTNode"*, %"class.LL2W::ASTNode"*) unnamed_addr #0 align 2 personality i8* bitcast (i32 (...)* @__gxx_personality_v0 to i8*) {
  %10 = alloca %"struct.LL2W::SelectNode"*, align 8
  %11 = alloca %"class.LL2W::ASTNode"*, align 8
  %12 = alloca %"class.LL2W::ASTNode"*, align 8
  %13 = alloca %"class.LL2W::ASTNode"*, align 8
  %14 = alloca %"class.LL2W::ASTNode"*, align 8
  %15 = alloca %"class.LL2W::ASTNode"*, align 8
  %16 = alloca %"class.LL2W::ASTNode"*, align 8
  %17 = alloca %"class.LL2W::ASTNode"*, align 8
  %18 = alloca %"class.LL2W::ASTNode"*, align 8
  %19 = alloca %"class.std::__1::basic_string", align 8
  %20 = alloca i8*
  %21 = alloca i32
  %22 = alloca %"class.LL2W::ASTNode"*, align 8
  %23 = alloca %"class.std::__1::__list_iterator", align 8
  %24 = alloca %"class.std::__1::__list_iterator", align 8
  %25 = alloca %"class.LL2W::ASTNode"*, align 8
  %26 = alloca %"class.std::__1::basic_string"*, align 8
  %27 = alloca %"class.std::__1::unordered_map"*, align 8
  %28 = alloca %"class.std::__1::__hash_map_iterator", align 8
  %29 = alloca %"class.std::__1::__hash_map_iterator", align 8
  %30 = alloca %"struct.std::__1::pair"*, align 8
  %31 = alloca %"struct.std::__1::pair", align 8
  %32 = alloca %"struct.std::__1::pair.46", align 8
  %33 = alloca i32, align 4
  store %"struct.LL2W::SelectNode"* %0, %"struct.LL2W::SelectNode"** %10, align 8
  store %"class.LL2W::ASTNode"* %1, %"class.LL2W::ASTNode"** %11, align 8
  store %"class.LL2W::ASTNode"* %2, %"class.LL2W::ASTNode"** %12, align 8
  store %"class.LL2W::ASTNode"* %3, %"class.LL2W::ASTNode"** %13, align 8
  store %"class.LL2W::ASTNode"* %4, %"class.LL2W::ASTNode"** %14, align 8
  store %"class.LL2W::ASTNode"* %5, %"class.LL2W::ASTNode"** %15, align 8
  store %"class.LL2W::ASTNode"* %6, %"class.LL2W::ASTNode"** %16, align 8
  store %"class.LL2W::ASTNode"* %7, %"class.LL2W::ASTNode"** %17, align 8
  store %"class.LL2W::ASTNode"* %8, %"class.LL2W::ASTNode"** %18, align 8
  %34 = load %"struct.LL2W::SelectNode"*, %"struct.LL2W::SelectNode"** %10, align 8
  %35 = bitcast %"struct.LL2W::SelectNode"* %34 to %"struct.LL2W::InstructionNode"*
  call void @_ZN4LL2W15InstructionNodeC2Ev(%"struct.LL2W::InstructionNode"* %35)
  %36 = bitcast %"struct.LL2W::SelectNode"* %34 to i32 (...)***
  store i32 (...)** bitcast (i8** getelementptr inbounds ({ [6 x i8*] }, { [6 x i8*] }* @_ZTVN4LL2W10SelectNodeE, i32 0, inrange i32 0, i32 2) to i32 (...)**), i32 (...)*** %36, align 8
  %37 = getelementptr inbounds %"struct.LL2W::SelectNode", %"struct.LL2W::SelectNode"* %34, i32 0, i32 2
  call void @_ZNSt3__113unordered_setIN4LL2W8FastmathENS_4hashIS2_EENS_8equal_toIS2_EENS_9allocatorIS2_EEEC1Ev(%"class.std::__1::unordered_set"* %37) #13
  %38 = load %"class.LL2W::ASTNode"*, %"class.LL2W::ASTNode"** %11, align 8
  invoke void @_ZNK4LL2W7ASTNode11extractNameEv(%"class.std::__1::basic_string"* sret %19, %"class.LL2W::ASTNode"* %38)
          to label %39 unwind label %98

; <label>:39:                                     ; preds = %9
  %40 = invoke %"class.std::__1::basic_string"* @_ZN4LL2W9StringSet6internERKNSt3__112basic_stringIcNS1_11char_traitsIcEENS1_9allocatorIcEEEE(%"class.std::__1::basic_string"* dereferenceable(24) %19)
          to label %41 unwind label %102

; <label>:41:                                     ; preds = %39
  %42 = getelementptr inbounds %"struct.LL2W::SelectNode", %"struct.LL2W::SelectNode"* %34, i32 0, i32 1
  store %"class.std::__1::basic_string"* %40, %"class.std::__1::basic_string"** %42, align 8
  call void @_ZNSt3__112basic_stringIcNS_11char_traitsIcEENS_9allocatorIcEEED1Ev(%"class.std::__1::basic_string"* %19) #13
  %43 = load %"class.LL2W::ASTNode"*, %"class.LL2W::ASTNode"** %11, align 8
  %44 = icmp eq %"class.LL2W::ASTNode"* %43, null
  br i1 %44, label %50, label %45

; <label>:45:                                     ; preds = %41
  %46 = bitcast %"class.LL2W::ASTNode"* %43 to void (%"class.LL2W::ASTNode"*)***
  %47 = load void (%"class.LL2W::ASTNode"*)**, void (%"class.LL2W::ASTNode"*)*** %46, align 8
  %48 = getelementptr inbounds void (%"class.LL2W::ASTNode"*)*, void (%"class.LL2W::ASTNode"*)** %47, i64 1
  %49 = load void (%"class.LL2W::ASTNode"*)*, void (%"class.LL2W::ASTNode"*)** %48, align 8
  call void %49(%"class.LL2W::ASTNode"* %43) #13
  br label %50

; <label>:50:                                     ; preds = %45, %41
  %51 = load %"class.LL2W::ASTNode"*, %"class.LL2W::ASTNode"** %12, align 8
  store %"class.LL2W::ASTNode"* %51, %"class.LL2W::ASTNode"** %22, align 8
  %52 = load %"class.LL2W::ASTNode"*, %"class.LL2W::ASTNode"** %22, align 8
  %53 = invoke %"struct.std::__1::__list_node_base"* @_ZN4LL2W7ASTNode5beginEv(%"class.LL2W::ASTNode"* %52)
          to label %54 unwind label %98

; <label>:54:                                     ; preds = %50
  %55 = getelementptr inbounds %"class.std::__1::__list_iterator", %"class.std::__1::__list_iterator"* %23, i32 0, i32 0
  store %"struct.std::__1::__list_node_base"* %53, %"struct.std::__1::__list_node_base"** %55, align 8
  %56 = load %"class.LL2W::ASTNode"*, %"class.LL2W::ASTNode"** %22, align 8
  %57 = invoke %"struct.std::__1::__list_node_base"* @_ZN4LL2W7ASTNode3endEv(%"class.LL2W::ASTNode"* %56)
          to label %58 unwind label %98

; <label>:58:                                     ; preds = %54
  %59 = getelementptr inbounds %"class.std::__1::__list_iterator", %"class.std::__1::__list_iterator"* %24, i32 0, i32 0
  store %"struct.std::__1::__list_node_base"* %57, %"struct.std::__1::__list_node_base"** %59, align 8
  br label %60

; <label>:60:                                     ; preds = %120, %58
  %61 = invoke zeroext i1 @_ZNSt3__1neERKNS_15__list_iteratorIPN4LL2W7ASTNodeEPvEES7_(%"class.std::__1::__list_iterator"* dereferenceable(8) %23, %"class.std::__1::__list_iterator"* dereferenceable(8) %24)
          to label %62 unwind label %98

; <label>:62:                                     ; preds = %60
  br i1 %61, label %63, label %121

; <label>:63:                                     ; preds = %62
  %64 = invoke dereferenceable(8) %"class.LL2W::ASTNode"** @_ZNKSt3__115__list_iteratorIPN4LL2W7ASTNodeEPvEdeEv(%"class.std::__1::__list_iterator"* %23)
          to label %65 unwind label %98

; <label>:65:                                     ; preds = %63
  %66 = load %"class.LL2W::ASTNode"*, %"class.LL2W::ASTNode"** %64, align 8
  store %"class.LL2W::ASTNode"* %66, %"class.LL2W::ASTNode"** %25, align 8
  %67 = load %"class.LL2W::ASTNode"*, %"class.LL2W::ASTNode"** %25, align 8
  %68 = getelementptr inbounds %"class.LL2W::ASTNode", %"class.LL2W::ASTNode"* %67, i32 0, i32 3
  %69 = load %"class.std::__1::basic_string"*, %"class.std::__1::basic_string"** %68, align 8
  store %"class.std::__1::basic_string"* %69, %"class.std::__1::basic_string"** %26, align 8
  store %"class.std::__1::unordered_map"* @_ZN4LL2W12fastmath_mapE, %"class.std::__1::unordered_map"** %27, align 8
  %70 = call %"struct.std::__1::__hash_node_base.28"* @_ZNSt3__113unordered_mapIN4LL2W8FastmathENS_12basic_stringIcNS_11char_traitsIcEENS_9allocatorIcEEEENS_4hashIS2_EENS_8equal_toIS2_EENS6_INS_4pairIKS2_S8_EEEEE5beginEv(%"class.std::__1::unordered_map"* @_ZN4LL2W12fastmath_mapE) #13
  %71 = getelementptr inbounds %"class.std::__1::__hash_map_iterator", %"class.std::__1::__hash_map_iterator"* %28, i32 0, i32 0
  %72 = getelementptr inbounds %"class.std::__1::__hash_iterator", %"class.std::__1::__hash_iterator"* %71, i32 0, i32 0
  store %"struct.std::__1::__hash_node_base.28"* %70, %"struct.std::__1::__hash_node_base.28"** %72, align 8
  %73 = call %"struct.std::__1::__hash_node_base.28"* @_ZNSt3__113unordered_mapIN4LL2W8FastmathENS_12basic_stringIcNS_11char_traitsIcEENS_9allocatorIcEEEENS_4hashIS2_EENS_8equal_toIS2_EENS6_INS_4pairIKS2_S8_EEEEE3endEv(%"class.std::__1::unordered_map"* @_ZN4LL2W12fastmath_mapE) #13
  %74 = getelementptr inbounds %"class.std::__1::__hash_map_iterator", %"class.std::__1::__hash_map_iterator"* %29, i32 0, i32 0
  %75 = getelementptr inbounds %"class.std::__1::__hash_iterator", %"class.std::__1::__hash_iterator"* %74, i32 0, i32 0
  store %"struct.std::__1::__hash_node_base.28"* %73, %"struct.std::__1::__hash_node_base.28"** %75, align 8
  br label %76

; <label>:76:                                     ; preds = %116, %65
  %77 = invoke zeroext i1 @_ZNSt3__1neERKNS_19__hash_map_iteratorINS_15__hash_iteratorIPNS_11__hash_nodeINS_17__hash_value_typeIN4LL2W8FastmathENS_12basic_stringIcNS_11char_traitsIcEENS_9allocatorIcEEEEEEPvEEEEEESJ_(%"class.std::__1::__hash_map_iterator"* dereferenceable(8) %28, %"class.std::__1::__hash_map_iterator"* dereferenceable(8) %29)
          to label %78 unwind label %98

; <label>:78:                                     ; preds = %76
  br i1 %77, label %79, label %117

; <label>:79:                                     ; preds = %78
  %80 = invoke dereferenceable(32) %"struct.std::__1::pair.45"* @_ZNKSt3__119__hash_map_iteratorINS_15__hash_iteratorIPNS_11__hash_nodeINS_17__hash_value_typeIN4LL2W8FastmathENS_12basic_stringIcNS_11char_traitsIcEENS_9allocatorIcEEEEEEPvEEEEEdeEv(%"class.std::__1::__hash_map_iterator"* %28)
          to label %81 unwind label %98

; <label>:81:                                     ; preds = %79
  invoke void @_ZNSt3__14pairIN4LL2W8FastmathENS_12basic_stringIcNS_11char_traitsIcEENS_9allocatorIcEEEEEC1IRNS0_IKS2_S8_EELb0EEEOT_(%"struct.std::__1::pair"* %31, %"struct.std::__1::pair.45"* dereferenceable(32) %80)
          to label %82 unwind label %98

; <label>:82:                                     ; preds = %81
  store %"struct.std::__1::pair"* %31, %"struct.std::__1::pair"** %30, align 8
  %83 = load %"class.std::__1::basic_string"*, %"class.std::__1::basic_string"** %26, align 8
  %84 = load %"struct.std::__1::pair"*, %"struct.std::__1::pair"** %30, align 8
  %85 = getelementptr inbounds %"struct.std::__1::pair", %"struct.std::__1::pair"* %84, i32 0, i32 1
  %86 = call zeroext i1 @_ZNSt3__1eqINS_9allocatorIcEEEEbRKNS_12basic_stringIcNS_11char_traitsIcEET_EES9_(%"class.std::__1::basic_string"* dereferenceable(24) %83, %"class.std::__1::basic_string"* dereferenceable(24) %85) #13
  br i1 %86, label %87, label %110

; <label>:87:                                     ; preds = %82
  %88 = getelementptr inbounds %"struct.LL2W::SelectNode", %"struct.LL2W::SelectNode"* %34, i32 0, i32 2
  %89 = load %"struct.std::__1::pair"*, %"struct.std::__1::pair"** %30, align 8
  %90 = getelementptr inbounds %"struct.std::__1::pair", %"struct.std::__1::pair"* %89, i32 0, i32 0
  %91 = invoke { %"struct.std::__1::__hash_node_base"*, i8 } @_ZNSt3__113unordered_setIN4LL2W8FastmathENS_4hashIS2_EENS_8equal_toIS2_EENS_9allocatorIS2_EEE6insertERKS2_(%"class.std::__1::unordered_set"* %88, i32* dereferenceable(4) %90)
          to label %92 unwind label %106

; <label>:92:                                     ; preds = %87
  %93 = bitcast %"struct.std::__1::pair.46"* %32 to { %"struct.std::__1::__hash_node_base"*, i8 }*
  %94 = getelementptr inbounds { %"struct.std::__1::__hash_node_base"*, i8 }, { %"struct.std::__1::__hash_node_base"*, i8 }* %93, i32 0, i32 0
  %95 = extractvalue { %"struct.std::__1::__hash_node_base"*, i8 } %91, 0
  store %"struct.std::__1::__hash_node_base"* %95, %"struct.std::__1::__hash_node_base"** %94, align 8
  %96 = getelementptr inbounds { %"struct.std::__1::__hash_node_base"*, i8 }, { %"struct.std::__1::__hash_node_base"*, i8 }* %93, i32 0, i32 1
  %97 = extractvalue { %"struct.std::__1::__hash_node_base"*, i8 } %91, 1
  store i8 %97, i8* %96, align 8
  store i32 4, i32* %33, align 4
  br label %111

; <label>:98:                                     ; preds = %189, %177, %165, %153, %141, %129, %118, %114, %81, %79, %76, %63, %60, %54, %50, %9
  %99 = landingpad { i8*, i32 }
          cleanup
  %100 = extractvalue { i8*, i32 } %99, 0
  store i8* %100, i8** %20, align 8
  %101 = extractvalue { i8*, i32 } %99, 1
  store i32 %101, i32* %21, align 4
  br label %202

; <label>:102:                                    ; preds = %39
  %103 = landingpad { i8*, i32 }
          cleanup
  %104 = extractvalue { i8*, i32 } %103, 0
  store i8* %104, i8** %20, align 8
  %105 = extractvalue { i8*, i32 } %103, 1
  store i32 %105, i32* %21, align 4
  call void @_ZNSt3__112basic_stringIcNS_11char_traitsIcEENS_9allocatorIcEEED1Ev(%"class.std::__1::basic_string"* %19) #13
  br label %202

; <label>:106:                                    ; preds = %87
  %107 = landingpad { i8*, i32 }
          cleanup
  %108 = extractvalue { i8*, i32 } %107, 0
  store i8* %108, i8** %20, align 8
  %109 = extractvalue { i8*, i32 } %107, 1
  store i32 %109, i32* %21, align 4
  call void @_ZNSt3__14pairIN4LL2W8FastmathENS_12basic_stringIcNS_11char_traitsIcEENS_9allocatorIcEEEEED1Ev(%"struct.std::__1::pair"* %31) #13
  br label %202

; <label>:110:                                    ; preds = %82
  store i32 0, i32* %33, align 4
  br label %111

; <label>:111:                                    ; preds = %110, %92
  call void @_ZNSt3__14pairIN4LL2W8FastmathENS_12basic_stringIcNS_11char_traitsIcEENS_9allocatorIcEEEEED1Ev(%"struct.std::__1::pair"* %31) #13
  %112 = load i32, i32* %33, align 4
  switch i32 %112, label %209 [
    i32 0, label %113
    i32 4, label %117
  ]

; <label>:113:                                    ; preds = %111
  br label %114

; <label>:114:                                    ; preds = %113
  %115 = invoke dereferenceable(8) %"class.std::__1::__hash_map_iterator"* @_ZNSt3__119__hash_map_iteratorINS_15__hash_iteratorIPNS_11__hash_nodeINS_17__hash_value_typeIN4LL2W8FastmathENS_12basic_stringIcNS_11char_traitsIcEENS_9allocatorIcEEEEEEPvEEEEEppEv(%"class.std::__1::__hash_map_iterator"* %28)
          to label %116 unwind label %98

; <label>:116:                                    ; preds = %114
  br label %76

; <label>:117:                                    ; preds = %111, %78
  br label %118

; <label>:118:                                    ; preds = %117
  %119 = invoke dereferenceable(8) %"class.std::__1::__list_iterator"* @_ZNSt3__115__list_iteratorIPN4LL2W7ASTNodeEPvEppEv(%"class.std::__1::__list_iterator"* %23)
          to label %120 unwind label %98

; <label>:120:                                    ; preds = %118
  br label %60

; <label>:121:                                    ; preds = %62
  %122 = load %"class.LL2W::ASTNode"*, %"class.LL2W::ASTNode"** %12, align 8
  %123 = icmp eq %"class.LL2W::ASTNode"* %122, null
  br i1 %123, label %129, label %124

; <label>:124:                                    ; preds = %121
  %125 = bitcast %"class.LL2W::ASTNode"* %122 to void (%"class.LL2W::ASTNode"*)***
  %126 = load void (%"class.LL2W::ASTNode"*)**, void (%"class.LL2W::ASTNode"*)*** %125, align 8
  %127 = getelementptr inbounds void (%"class.LL2W::ASTNode"*)*, void (%"class.LL2W::ASTNode"*)** %126, i64 1
  %128 = load void (%"class.LL2W::ASTNode"*)*, void (%"class.LL2W::ASTNode"*)** %127, align 8
  call void %128(%"class.LL2W::ASTNode"* %122) #13
  br label %129

; <label>:129:                                    ; preds = %124, %121
  %130 = load %"class.LL2W::ASTNode"*, %"class.LL2W::ASTNode"** %13, align 8
  %131 = invoke %"struct.LL2W::Type"* @_ZN4LL2W7getTypeEPKNS_7ASTNodeE(%"class.LL2W::ASTNode"* %130)
          to label %132 unwind label %98

; <label>:132:                                    ; preds = %129
  %133 = getelementptr inbounds %"struct.LL2W::SelectNode", %"struct.LL2W::SelectNode"* %34, i32 0, i32 3
  store %"struct.LL2W::Type"* %131, %"struct.LL2W::Type"** %133, align 8
  %134 = load %"class.LL2W::ASTNode"*, %"class.LL2W::ASTNode"** %13, align 8
  %135 = icmp eq %"class.LL2W::ASTNode"* %134, null
  br i1 %135, label %141, label %136

; <label>:136:                                    ; preds = %132
  %137 = bitcast %"class.LL2W::ASTNode"* %134 to void (%"class.LL2W::ASTNode"*)***
  %138 = load void (%"class.LL2W::ASTNode"*)**, void (%"class.LL2W::ASTNode"*)*** %137, align 8
  %139 = getelementptr inbounds void (%"class.LL2W::ASTNode"*)*, void (%"class.LL2W::ASTNode"*)** %138, i64 1
  %140 = load void (%"class.LL2W::ASTNode"*)*, void (%"class.LL2W::ASTNode"*)** %139, align 8
  call void %140(%"class.LL2W::ASTNode"* %134) #13
  br label %141

; <label>:141:                                    ; preds = %136, %132
  %142 = load %"class.LL2W::ASTNode"*, %"class.LL2W::ASTNode"** %14, align 8
  %143 = invoke %"struct.LL2W::Value"* @_ZN4LL2W8getValueEPKNS_7ASTNodeE(%"class.LL2W::ASTNode"* %142)
          to label %144 unwind label %98

; <label>:144:                                    ; preds = %141
  %145 = getelementptr inbounds %"struct.LL2W::SelectNode", %"struct.LL2W::SelectNode"* %34, i32 0, i32 6
  store %"struct.LL2W::Value"* %143, %"struct.LL2W::Value"** %145, align 8
  %146 = load %"class.LL2W::ASTNode"*, %"class.LL2W::ASTNode"** %14, align 8
  %147 = icmp eq %"class.LL2W::ASTNode"* %146, null
  br i1 %147, label %153, label %148

; <label>:148:                                    ; preds = %144
  %149 = bitcast %"class.LL2W::ASTNode"* %146 to void (%"class.LL2W::ASTNode"*)***
  %150 = load void (%"class.LL2W::ASTNode"*)**, void (%"class.LL2W::ASTNode"*)*** %149, align 8
  %151 = getelementptr inbounds void (%"class.LL2W::ASTNode"*)*, void (%"class.LL2W::ASTNode"*)** %150, i64 1
  %152 = load void (%"class.LL2W::ASTNode"*)*, void (%"class.LL2W::ASTNode"*)** %151, align 8
  call void %152(%"class.LL2W::ASTNode"* %146) #13
  br label %153

; <label>:153:                                    ; preds = %148, %144
  %154 = load %"class.LL2W::ASTNode"*, %"class.LL2W::ASTNode"** %15, align 8
  %155 = invoke %"struct.LL2W::Type"* @_ZN4LL2W7getTypeEPKNS_7ASTNodeE(%"class.LL2W::ASTNode"* %154)
          to label %156 unwind label %98

; <label>:156:                                    ; preds = %153
  %157 = getelementptr inbounds %"struct.LL2W::SelectNode", %"struct.LL2W::SelectNode"* %34, i32 0, i32 4
  store %"struct.LL2W::Type"* %155, %"struct.LL2W::Type"** %157, align 8
  %158 = load %"class.LL2W::ASTNode"*, %"class.LL2W::ASTNode"** %15, align 8
  %159 = icmp eq %"class.LL2W::ASTNode"* %158, null
  br i1 %159, label %165, label %160

; <label>:160:                                    ; preds = %156
  %161 = bitcast %"class.LL2W::ASTNode"* %158 to void (%"class.LL2W::ASTNode"*)***
  %162 = load void (%"class.LL2W::ASTNode"*)**, void (%"class.LL2W::ASTNode"*)*** %161, align 8
  %163 = getelementptr inbounds void (%"class.LL2W::ASTNode"*)*, void (%"class.LL2W::ASTNode"*)** %162, i64 1
  %164 = load void (%"class.LL2W::ASTNode"*)*, void (%"class.LL2W::ASTNode"*)** %163, align 8
  call void %164(%"class.LL2W::ASTNode"* %158) #13
  br label %165

; <label>:165:                                    ; preds = %160, %156
  %166 = load %"class.LL2W::ASTNode"*, %"class.LL2W::ASTNode"** %16, align 8
  %167 = invoke %"struct.LL2W::Value"* @_ZN4LL2W8getValueEPKNS_7ASTNodeE(%"class.LL2W::ASTNode"* %166)
          to label %168 unwind label %98

; <label>:168:                                    ; preds = %165
  %169 = getelementptr inbounds %"struct.LL2W::SelectNode", %"struct.LL2W::SelectNode"* %34, i32 0, i32 7
  store %"struct.LL2W::Value"* %167, %"struct.LL2W::Value"** %169, align 8
  %170 = load %"class.LL2W::ASTNode"*, %"class.LL2W::ASTNode"** %16, align 8
  %171 = icmp eq %"class.LL2W::ASTNode"* %170, null
  br i1 %171, label %177, label %172

; <label>:172:                                    ; preds = %168
  %173 = bitcast %"class.LL2W::ASTNode"* %170 to void (%"class.LL2W::ASTNode"*)***
  %174 = load void (%"class.LL2W::ASTNode"*)**, void (%"class.LL2W::ASTNode"*)*** %173, align 8
  %175 = getelementptr inbounds void (%"class.LL2W::ASTNode"*)*, void (%"class.LL2W::ASTNode"*)** %174, i64 1
  %176 = load void (%"class.LL2W::ASTNode"*)*, void (%"class.LL2W::ASTNode"*)** %175, align 8
  call void %176(%"class.LL2W::ASTNode"* %170) #13
  br label %177

; <label>:177:                                    ; preds = %172, %168
  %178 = load %"class.LL2W::ASTNode"*, %"class.LL2W::ASTNode"** %17, align 8
  %179 = invoke %"struct.LL2W::Type"* @_ZN4LL2W7getTypeEPKNS_7ASTNodeE(%"class.LL2W::ASTNode"* %178)
          to label %180 unwind label %98

; <label>:180:                                    ; preds = %177
  %181 = getelementptr inbounds %"struct.LL2W::SelectNode", %"struct.LL2W::SelectNode"* %34, i32 0, i32 5
  store %"struct.LL2W::Type"* %179, %"struct.LL2W::Type"** %181, align 8
  %182 = load %"class.LL2W::ASTNode"*, %"class.LL2W::ASTNode"** %17, align 8
  %183 = icmp eq %"class.LL2W::ASTNode"* %182, null
  br i1 %183, label %189, label %184

; <label>:184:                                    ; preds = %180
  %185 = bitcast %"class.LL2W::ASTNode"* %182 to void (%"class.LL2W::ASTNode"*)***
  %186 = load void (%"class.LL2W::ASTNode"*)**, void (%"class.LL2W::ASTNode"*)*** %185, align 8
  %187 = getelementptr inbounds void (%"class.LL2W::ASTNode"*)*, void (%"class.LL2W::ASTNode"*)** %186, i64 1
  %188 = load void (%"class.LL2W::ASTNode"*)*, void (%"class.LL2W::ASTNode"*)** %187, align 8
  call void %188(%"class.LL2W::ASTNode"* %182) #13
  br label %189

; <label>:189:                                    ; preds = %184, %180
  %190 = load %"class.LL2W::ASTNode"*, %"class.LL2W::ASTNode"** %18, align 8
  %191 = invoke %"struct.LL2W::Value"* @_ZN4LL2W8getValueEPKNS_7ASTNodeE(%"class.LL2W::ASTNode"* %190)
          to label %192 unwind label %98

; <label>:192:                                    ; preds = %189
  %193 = getelementptr inbounds %"struct.LL2W::SelectNode", %"struct.LL2W::SelectNode"* %34, i32 0, i32 8
  store %"struct.LL2W::Value"* %191, %"struct.LL2W::Value"** %193, align 8
  %194 = load %"class.LL2W::ASTNode"*, %"class.LL2W::ASTNode"** %18, align 8
  %195 = icmp eq %"class.LL2W::ASTNode"* %194, null
  br i1 %195, label %201, label %196

; <label>:196:                                    ; preds = %192
  %197 = bitcast %"class.LL2W::ASTNode"* %194 to void (%"class.LL2W::ASTNode"*)***
  %198 = load void (%"class.LL2W::ASTNode"*)**, void (%"class.LL2W::ASTNode"*)*** %197, align 8
  %199 = getelementptr inbounds void (%"class.LL2W::ASTNode"*)*, void (%"class.LL2W::ASTNode"*)** %198, i64 1
  %200 = load void (%"class.LL2W::ASTNode"*)*, void (%"class.LL2W::ASTNode"*)** %199, align 8
  call void %200(%"class.LL2W::ASTNode"* %194) #13
  br label %201

; <label>:201:                                    ; preds = %196, %192
  ret void

; <label>:202:                                    ; preds = %106, %102, %98
  call void @_ZNSt3__113unordered_setIN4LL2W8FastmathENS_4hashIS2_EENS_8equal_toIS2_EENS_9allocatorIS2_EEED1Ev(%"class.std::__1::unordered_set"* %37) #13
  %203 = bitcast %"struct.LL2W::SelectNode"* %34 to %"struct.LL2W::InstructionNode"*
  call void @_ZN4LL2W15InstructionNodeD2Ev(%"struct.LL2W::InstructionNode"* %203) #13
  br label %204

; <label>:204:                                    ; preds = %202
  %205 = load i8*, i8** %20, align 8
  %206 = load i32, i32* %21, align 4
  %207 = insertvalue { i8*, i32 } undef, i8* %205, 0
  %208 = insertvalue { i8*, i32 } %207, i32 %206, 1
  resume { i8*, i32 } %208

; <label>:209:                                    ; preds = %111
  unreachable
}

; Function Attrs: noinline optnone ssp uwtable
define linkonce_odr void @_ZN4LL2W15InstructionNodeC2Ev(%"struct.LL2W::InstructionNode"*) unnamed_addr #0 align 2 {
  %2 = alloca %"struct.LL2W::InstructionNode"*, align 8
  store %"struct.LL2W::InstructionNode"* %0, %"struct.LL2W::InstructionNode"** %2, align 8
  %3 = load %"struct.LL2W::InstructionNode"*, %"struct.LL2W::InstructionNode"** %2, align 8
  %4 = bitcast %"struct.LL2W::InstructionNode"* %3 to %"class.LL2W::ASTNode"*
  call void @_ZN4LL2W7ASTNodeC2EiPKc(%"class.LL2W::ASTNode"* %4, i32 392, i8* getelementptr inbounds ([1 x i8], [1 x i8]* @.str.45, i32 0, i32 0))
  %5 = bitcast %"struct.LL2W::InstructionNode"* %3 to i32 (...)***
  store i32 (...)** bitcast (i8** getelementptr inbounds ({ [6 x i8*] }, { [6 x i8*] }* @_ZTVN4LL2W15InstructionNodeE, i32 0, inrange i32 0, i32 2) to i32 (...)**), i32 (...)*** %5, align 8
  ret void
}

; Function Attrs: noinline nounwind optnone ssp uwtable
define linkonce_odr hidden void @_ZNSt3__113unordered_setIN4LL2W8FastmathENS_4hashIS2_EENS_8equal_toIS2_EENS_9allocatorIS2_EEEC1Ev(%"class.std::__1::unordered_set"*) unnamed_addr #1 align 2 {
  %2 = alloca %"class.std::__1::unordered_set"*, align 8
  store %"class.std::__1::unordered_set"* %0, %"class.std::__1::unordered_set"** %2, align 8
  %3 = load %"class.std::__1::unordered_set"*, %"class.std::__1::unordered_set"** %2, align 8
  call void @_ZNSt3__113unordered_setIN4LL2W8FastmathENS_4hashIS2_EENS_8equal_toIS2_EENS_9allocatorIS2_EEEC2Ev(%"class.std::__1::unordered_set"* %3) #13
  ret void
}

declare %"class.std::__1::basic_string"* @_ZN4LL2W9StringSet6internERKNSt3__112basic_stringIcNS1_11char_traitsIcEENS1_9allocatorIcEEEE(%"class.std::__1::basic_string"* dereferenceable(24)) #2

declare void @_ZNK4LL2W7ASTNode11extractNameEv(%"class.std::__1::basic_string"* sret, %"class.LL2W::ASTNode"*) #2

declare i32 @__gxx_personality_v0(...)

; Function Attrs: nounwind
declare void @_ZNSt3__112basic_stringIcNS_11char_traitsIcEENS_9allocatorIcEEED1Ev(%"class.std::__1::basic_string"*) unnamed_addr #3

declare %"struct.std::__1::__list_node_base"* @_ZN4LL2W7ASTNode5beginEv(%"class.LL2W::ASTNode"*) #2

declare %"struct.std::__1::__list_node_base"* @_ZN4LL2W7ASTNode3endEv(%"class.LL2W::ASTNode"*) #2

; Function Attrs: noinline optnone ssp uwtable
define linkonce_odr hidden zeroext i1 @_ZNSt3__1neERKNS_15__list_iteratorIPN4LL2W7ASTNodeEPvEES7_(%"class.std::__1::__list_iterator"* dereferenceable(8), %"class.std::__1::__list_iterator"* dereferenceable(8)) #0 {
  %3 = alloca %"class.std::__1::__list_iterator"*, align 8
  %4 = alloca %"class.std::__1::__list_iterator"*, align 8
  store %"class.std::__1::__list_iterator"* %0, %"class.std::__1::__list_iterator"** %3, align 8
  store %"class.std::__1::__list_iterator"* %1, %"class.std::__1::__list_iterator"** %4, align 8
  %5 = load %"class.std::__1::__list_iterator"*, %"class.std::__1::__list_iterator"** %3, align 8
  %6 = load %"class.std::__1::__list_iterator"*, %"class.std::__1::__list_iterator"** %4, align 8
  %7 = call zeroext i1 @_ZNSt3__1eqERKNS_15__list_iteratorIPN4LL2W7ASTNodeEPvEES7_(%"class.std::__1::__list_iterator"* dereferenceable(8) %5, %"class.std::__1::__list_iterator"* dereferenceable(8) %6)
  %8 = xor i1 %7, true
  ret i1 %8
}

; Function Attrs: noinline optnone ssp uwtable
define linkonce_odr hidden dereferenceable(8) %"class.LL2W::ASTNode"** @_ZNKSt3__115__list_iteratorIPN4LL2W7ASTNodeEPvEdeEv(%"class.std::__1::__list_iterator"*) #0 align 2 {
  %2 = alloca %"class.std::__1::__list_iterator"*, align 8
  store %"class.std::__1::__list_iterator"* %0, %"class.std::__1::__list_iterator"** %2, align 8
  %3 = load %"class.std::__1::__list_iterator"*, %"class.std::__1::__list_iterator"** %2, align 8
  %4 = getelementptr inbounds %"class.std::__1::__list_iterator", %"class.std::__1::__list_iterator"* %3, i32 0, i32 0
  %5 = load %"struct.std::__1::__list_node_base"*, %"struct.std::__1::__list_node_base"** %4, align 8
  %6 = call %"struct.std::__1::__list_node"* @_ZNSt3__116__list_node_baseIPN4LL2W7ASTNodeEPvE9__as_nodeEv(%"struct.std::__1::__list_node_base"* %5)
  %7 = getelementptr inbounds %"struct.std::__1::__list_node", %"struct.std::__1::__list_node"* %6, i32 0, i32 1
  ret %"class.LL2W::ASTNode"** %7
}

; Function Attrs: noinline nounwind optnone ssp uwtable
define linkonce_odr hidden %"struct.std::__1::__hash_node_base.28"* @_ZNSt3__113unordered_mapIN4LL2W8FastmathENS_12basic_stringIcNS_11char_traitsIcEENS_9allocatorIcEEEENS_4hashIS2_EENS_8equal_toIS2_EENS6_INS_4pairIKS2_S8_EEEEE5beginEv(%"class.std::__1::unordered_map"*) #1 align 2 {
  %2 = alloca %"class.std::__1::__hash_map_iterator", align 8
  %3 = alloca %"class.std::__1::unordered_map"*, align 8
  %4 = alloca %"class.std::__1::__hash_iterator", align 8
  store %"class.std::__1::unordered_map"* %0, %"class.std::__1::unordered_map"** %3, align 8
  %5 = load %"class.std::__1::unordered_map"*, %"class.std::__1::unordered_map"** %3, align 8
  %6 = getelementptr inbounds %"class.std::__1::unordered_map", %"class.std::__1::unordered_map"* %5, i32 0, i32 0
  %7 = call %"struct.std::__1::__hash_node_base.28"* @_ZNSt3__112__hash_tableINS_17__hash_value_typeIN4LL2W8FastmathENS_12basic_stringIcNS_11char_traitsIcEENS_9allocatorIcEEEEEENS_22__unordered_map_hasherIS3_SA_NS_4hashIS3_EELb1EEENS_21__unordered_map_equalIS3_SA_NS_8equal_toIS3_EELb1EEENS7_ISA_EEE5beginEv(%"class.std::__1::__hash_table.24"* %6) #13
  %8 = getelementptr inbounds %"class.std::__1::__hash_iterator", %"class.std::__1::__hash_iterator"* %4, i32 0, i32 0
  store %"struct.std::__1::__hash_node_base.28"* %7, %"struct.std::__1::__hash_node_base.28"** %8, align 8
  %9 = getelementptr inbounds %"class.std::__1::__hash_iterator", %"class.std::__1::__hash_iterator"* %4, i32 0, i32 0
  %10 = load %"struct.std::__1::__hash_node_base.28"*, %"struct.std::__1::__hash_node_base.28"** %9, align 8
  call void @_ZNSt3__119__hash_map_iteratorINS_15__hash_iteratorIPNS_11__hash_nodeINS_17__hash_value_typeIN4LL2W8FastmathENS_12basic_stringIcNS_11char_traitsIcEENS_9allocatorIcEEEEEEPvEEEEEC1ESG_(%"class.std::__1::__hash_map_iterator"* %2, %"struct.std::__1::__hash_node_base.28"* %10) #13
  %11 = getelementptr inbounds %"class.std::__1::__hash_map_iterator", %"class.std::__1::__hash_map_iterator"* %2, i32 0, i32 0
  %12 = getelementptr inbounds %"class.std::__1::__hash_iterator", %"class.std::__1::__hash_iterator"* %11, i32 0, i32 0
  %13 = load %"struct.std::__1::__hash_node_base.28"*, %"struct.std::__1::__hash_node_base.28"** %12, align 8
  ret %"struct.std::__1::__hash_node_base.28"* %13
}

; Function Attrs: noinline nounwind optnone ssp uwtable
define linkonce_odr hidden %"struct.std::__1::__hash_node_base.28"* @_ZNSt3__113unordered_mapIN4LL2W8FastmathENS_12basic_stringIcNS_11char_traitsIcEENS_9allocatorIcEEEENS_4hashIS2_EENS_8equal_toIS2_EENS6_INS_4pairIKS2_S8_EEEEE3endEv(%"class.std::__1::unordered_map"*) #1 align 2 {
  %2 = alloca %"class.std::__1::__hash_map_iterator", align 8
  %3 = alloca %"class.std::__1::unordered_map"*, align 8
  %4 = alloca %"class.std::__1::__hash_iterator", align 8
  store %"class.std::__1::unordered_map"* %0, %"class.std::__1::unordered_map"** %3, align 8
  %5 = load %"class.std::__1::unordered_map"*, %"class.std::__1::unordered_map"** %3, align 8
  %6 = getelementptr inbounds %"class.std::__1::unordered_map", %"class.std::__1::unordered_map"* %5, i32 0, i32 0
  %7 = call %"struct.std::__1::__hash_node_base.28"* @_ZNSt3__112__hash_tableINS_17__hash_value_typeIN4LL2W8FastmathENS_12basic_stringIcNS_11char_traitsIcEENS_9allocatorIcEEEEEENS_22__unordered_map_hasherIS3_SA_NS_4hashIS3_EELb1EEENS_21__unordered_map_equalIS3_SA_NS_8equal_toIS3_EELb1EEENS7_ISA_EEE3endEv(%"class.std::__1::__hash_table.24"* %6) #13
  %8 = getelementptr inbounds %"class.std::__1::__hash_iterator", %"class.std::__1::__hash_iterator"* %4, i32 0, i32 0
  store %"struct.std::__1::__hash_node_base.28"* %7, %"struct.std::__1::__hash_node_base.28"** %8, align 8
  %9 = getelementptr inbounds %"class.std::__1::__hash_iterator", %"class.std::__1::__hash_iterator"* %4, i32 0, i32 0
  %10 = load %"struct.std::__1::__hash_node_base.28"*, %"struct.std::__1::__hash_node_base.28"** %9, align 8
  call void @_ZNSt3__119__hash_map_iteratorINS_15__hash_iteratorIPNS_11__hash_nodeINS_17__hash_value_typeIN4LL2W8FastmathENS_12basic_stringIcNS_11char_traitsIcEENS_9allocatorIcEEEEEEPvEEEEEC1ESG_(%"class.std::__1::__hash_map_iterator"* %2, %"struct.std::__1::__hash_node_base.28"* %10) #13
  %11 = getelementptr inbounds %"class.std::__1::__hash_map_iterator", %"class.std::__1::__hash_map_iterator"* %2, i32 0, i32 0
  %12 = getelementptr inbounds %"class.std::__1::__hash_iterator", %"class.std::__1::__hash_iterator"* %11, i32 0, i32 0
  %13 = load %"struct.std::__1::__hash_node_base.28"*, %"struct.std::__1::__hash_node_base.28"** %12, align 8
  ret %"struct.std::__1::__hash_node_base.28"* %13
}

; Function Attrs: noinline optnone ssp uwtable
define linkonce_odr hidden zeroext i1 @_ZNSt3__1neERKNS_19__hash_map_iteratorINS_15__hash_iteratorIPNS_11__hash_nodeINS_17__hash_value_typeIN4LL2W8FastmathENS_12basic_stringIcNS_11char_traitsIcEENS_9allocatorIcEEEEEEPvEEEEEESJ_(%"class.std::__1::__hash_map_iterator"* dereferenceable(8), %"class.std::__1::__hash_map_iterator"* dereferenceable(8)) #0 {
  %3 = alloca %"class.std::__1::__hash_map_iterator"*, align 8
  %4 = alloca %"class.std::__1::__hash_map_iterator"*, align 8
  store %"class.std::__1::__hash_map_iterator"* %0, %"class.std::__1::__hash_map_iterator"** %3, align 8
  store %"class.std::__1::__hash_map_iterator"* %1, %"class.std::__1::__hash_map_iterator"** %4, align 8
  %5 = load %"class.std::__1::__hash_map_iterator"*, %"class.std::__1::__hash_map_iterator"** %3, align 8
  %6 = getelementptr inbounds %"class.std::__1::__hash_map_iterator", %"class.std::__1::__hash_map_iterator"* %5, i32 0, i32 0
  %7 = load %"class.std::__1::__hash_map_iterator"*, %"class.std::__1::__hash_map_iterator"** %4, align 8
  %8 = getelementptr inbounds %"class.std::__1::__hash_map_iterator", %"class.std::__1::__hash_map_iterator"* %7, i32 0, i32 0
  %9 = call zeroext i1 @_ZNSt3__1neERKNS_15__hash_iteratorIPNS_11__hash_nodeINS_17__hash_value_typeIN4LL2W8FastmathENS_12basic_stringIcNS_11char_traitsIcEENS_9allocatorIcEEEEEEPvEEEESH_(%"class.std::__1::__hash_iterator"* dereferenceable(8) %6, %"class.std::__1::__hash_iterator"* dereferenceable(8) %8)
  ret i1 %9
}

; Function Attrs: noinline optnone ssp uwtable
define linkonce_odr hidden dereferenceable(32) %"struct.std::__1::pair.45"* @_ZNKSt3__119__hash_map_iteratorINS_15__hash_iteratorIPNS_11__hash_nodeINS_17__hash_value_typeIN4LL2W8FastmathENS_12basic_stringIcNS_11char_traitsIcEENS_9allocatorIcEEEEEEPvEEEEEdeEv(%"class.std::__1::__hash_map_iterator"*) #0 align 2 {
  %2 = alloca %"class.std::__1::__hash_map_iterator"*, align 8
  store %"class.std::__1::__hash_map_iterator"* %0, %"class.std::__1::__hash_map_iterator"** %2, align 8
  %3 = load %"class.std::__1::__hash_map_iterator"*, %"class.std::__1::__hash_map_iterator"** %2, align 8
  %4 = getelementptr inbounds %"class.std::__1::__hash_map_iterator", %"class.std::__1::__hash_map_iterator"* %3, i32 0, i32 0
  %5 = call %"struct.std::__1::__hash_value_type"* @_ZNKSt3__115__hash_iteratorIPNS_11__hash_nodeINS_17__hash_value_typeIN4LL2W8FastmathENS_12basic_stringIcNS_11char_traitsIcEENS_9allocatorIcEEEEEEPvEEEptEv(%"class.std::__1::__hash_iterator"* %4)
  %6 = call dereferenceable(32) %"struct.std::__1::pair.45"* @_ZNSt3__117__hash_value_typeIN4LL2W8FastmathENS_12basic_stringIcNS_11char_traitsIcEENS_9allocatorIcEEEEE11__get_valueEv(%"struct.std::__1::__hash_value_type"* %5)
  ret %"struct.std::__1::pair.45"* %6
}

; Function Attrs: noinline optnone ssp uwtable
define linkonce_odr void @_ZNSt3__14pairIN4LL2W8FastmathENS_12basic_stringIcNS_11char_traitsIcEENS_9allocatorIcEEEEEC1IRNS0_IKS2_S8_EELb0EEEOT_(%"struct.std::__1::pair"*, %"struct.std::__1::pair.45"* dereferenceable(32)) unnamed_addr #0 align 2 {
  %3 = alloca %"struct.std::__1::pair"*, align 8
  %4 = alloca %"struct.std::__1::pair.45"*, align 8
  store %"struct.std::__1::pair"* %0, %"struct.std::__1::pair"** %3, align 8
  store %"struct.std::__1::pair.45"* %1, %"struct.std::__1::pair.45"** %4, align 8
  %5 = load %"struct.std::__1::pair"*, %"struct.std::__1::pair"** %3, align 8
  %6 = load %"struct.std::__1::pair.45"*, %"struct.std::__1::pair.45"** %4, align 8
  call void @_ZNSt3__14pairIN4LL2W8FastmathENS_12basic_stringIcNS_11char_traitsIcEENS_9allocatorIcEEEEEC2IRNS0_IKS2_S8_EELb0EEEOT_(%"struct.std::__1::pair"* %5, %"struct.std::__1::pair.45"* dereferenceable(32) %6)
  ret void
}

; Function Attrs: noinline nounwind optnone ssp uwtable
define linkonce_odr hidden zeroext i1 @_ZNSt3__1eqINS_9allocatorIcEEEEbRKNS_12basic_stringIcNS_11char_traitsIcEET_EES9_(%"class.std::__1::basic_string"* dereferenceable(24), %"class.std::__1::basic_string"* dereferenceable(24)) #1 {
  %3 = alloca i1, align 1
  %4 = alloca %"class.std::__1::basic_string"*, align 8
  %5 = alloca %"class.std::__1::basic_string"*, align 8
  %6 = alloca i64, align 8
  %7 = alloca i8*, align 8
  %8 = alloca i8*, align 8
  store %"class.std::__1::basic_string"* %0, %"class.std::__1::basic_string"** %4, align 8
  store %"class.std::__1::basic_string"* %1, %"class.std::__1::basic_string"** %5, align 8
  %9 = load %"class.std::__1::basic_string"*, %"class.std::__1::basic_string"** %4, align 8
  %10 = call i64 @_ZNKSt3__112basic_stringIcNS_11char_traitsIcEENS_9allocatorIcEEE4sizeEv(%"class.std::__1::basic_string"* %9) #13
  store i64 %10, i64* %6, align 8
  %11 = load i64, i64* %6, align 8
  %12 = load %"class.std::__1::basic_string"*, %"class.std::__1::basic_string"** %5, align 8
  %13 = call i64 @_ZNKSt3__112basic_stringIcNS_11char_traitsIcEENS_9allocatorIcEEE4sizeEv(%"class.std::__1::basic_string"* %12) #13
  %14 = icmp ne i64 %11, %13
  br i1 %14, label %15, label %16

; <label>:15:                                     ; preds = %2
  store i1 false, i1* %3, align 1
  br label %51

; <label>:16:                                     ; preds = %2
  %17 = load %"class.std::__1::basic_string"*, %"class.std::__1::basic_string"** %4, align 8
  %18 = call i8* @_ZNKSt3__112basic_stringIcNS_11char_traitsIcEENS_9allocatorIcEEE4dataEv(%"class.std::__1::basic_string"* %17) #13
  store i8* %18, i8** %7, align 8
  %19 = load %"class.std::__1::basic_string"*, %"class.std::__1::basic_string"** %5, align 8
  %20 = call i8* @_ZNKSt3__112basic_stringIcNS_11char_traitsIcEENS_9allocatorIcEEE4dataEv(%"class.std::__1::basic_string"* %19) #13
  store i8* %20, i8** %8, align 8
  %21 = load %"class.std::__1::basic_string"*, %"class.std::__1::basic_string"** %4, align 8
  %22 = call zeroext i1 @_ZNKSt3__112basic_stringIcNS_11char_traitsIcEENS_9allocatorIcEEE9__is_longEv(%"class.std::__1::basic_string"* %21) #13
  br i1 %22, label %23, label %29

; <label>:23:                                     ; preds = %16
  %24 = load i8*, i8** %7, align 8
  %25 = load i8*, i8** %8, align 8
  %26 = load i64, i64* %6, align 8
  %27 = call i32 @_ZNSt3__111char_traitsIcE7compareEPKcS3_m(i8* %24, i8* %25, i64 %26) #13
  %28 = icmp eq i32 %27, 0
  store i1 %28, i1* %3, align 1
  br label %51

; <label>:29:                                     ; preds = %16
  br label %30

; <label>:30:                                     ; preds = %43, %29
  %31 = load i64, i64* %6, align 8
  %32 = icmp ne i64 %31, 0
  br i1 %32, label %33, label %50

; <label>:33:                                     ; preds = %30
  %34 = load i8*, i8** %7, align 8
  %35 = load i8, i8* %34, align 1
  %36 = sext i8 %35 to i32
  %37 = load i8*, i8** %8, align 8
  %38 = load i8, i8* %37, align 1
  %39 = sext i8 %38 to i32
  %40 = icmp ne i32 %36, %39
  br i1 %40, label %41, label %42

; <label>:41:                                     ; preds = %33
  store i1 false, i1* %3, align 1
  br label %51

; <label>:42:                                     ; preds = %33
  br label %43

; <label>:43:                                     ; preds = %42
  %44 = load i64, i64* %6, align 8
  %45 = add i64 %44, -1
  store i64 %45, i64* %6, align 8
  %46 = load i8*, i8** %7, align 8
  %47 = getelementptr inbounds i8, i8* %46, i32 1
  store i8* %47, i8** %7, align 8
  %48 = load i8*, i8** %8, align 8
  %49 = getelementptr inbounds i8, i8* %48, i32 1
  store i8* %49, i8** %8, align 8
  br label %30

; <label>:50:                                     ; preds = %30
  store i1 true, i1* %3, align 1
  br label %51

; <label>:51:                                     ; preds = %50, %41, %23, %15
  %52 = load i1, i1* %3, align 1
  ret i1 %52
}

; Function Attrs: noinline optnone ssp uwtable
define linkonce_odr hidden { %"struct.std::__1::__hash_node_base"*, i8 } @_ZNSt3__113unordered_setIN4LL2W8FastmathENS_4hashIS2_EENS_8equal_toIS2_EENS_9allocatorIS2_EEE6insertERKS2_(%"class.std::__1::unordered_set"*, i32* dereferenceable(4)) #0 align 2 {
  %3 = alloca %"struct.std::__1::pair.46", align 8
  %4 = alloca %"class.std::__1::unordered_set"*, align 8
  %5 = alloca i32*, align 8
  %6 = alloca %"struct.std::__1::pair.247", align 8
  store %"class.std::__1::unordered_set"* %0, %"class.std::__1::unordered_set"** %4, align 8
  store i32* %1, i32** %5, align 8
  %7 = load %"class.std::__1::unordered_set"*, %"class.std::__1::unordered_set"** %4, align 8
  %8 = getelementptr inbounds %"class.std::__1::unordered_set", %"class.std::__1::unordered_set"* %7, i32 0, i32 0
  %9 = load i32*, i32** %5, align 8
  %10 = call { %"struct.std::__1::__hash_node_base"*, i8 } @_ZNSt3__112__hash_tableIN4LL2W8FastmathENS_4hashIS2_EENS_8equal_toIS2_EENS_9allocatorIS2_EEE15__insert_uniqueERKS2_(%"class.std::__1::__hash_table"* %8, i32* dereferenceable(4) %9)
  %11 = bitcast %"struct.std::__1::pair.247"* %6 to { %"struct.std::__1::__hash_node_base"*, i8 }*
  %12 = getelementptr inbounds { %"struct.std::__1::__hash_node_base"*, i8 }, { %"struct.std::__1::__hash_node_base"*, i8 }* %11, i32 0, i32 0
  %13 = extractvalue { %"struct.std::__1::__hash_node_base"*, i8 } %10, 0
  store %"struct.std::__1::__hash_node_base"* %13, %"struct.std::__1::__hash_node_base"** %12, align 8
  %14 = getelementptr inbounds { %"struct.std::__1::__hash_node_base"*, i8 }, { %"struct.std::__1::__hash_node_base"*, i8 }* %11, i32 0, i32 1
  %15 = extractvalue { %"struct.std::__1::__hash_node_base"*, i8 } %10, 1
  store i8 %15, i8* %14, align 8
  call void @_ZNSt3__14pairINS_21__hash_const_iteratorIPNS_11__hash_nodeIN4LL2W8FastmathEPvEEEEbEC1INS_15__hash_iteratorIS7_EEbLb0EEEONS0_IT_T0_EE(%"struct.std::__1::pair.46"* %3, %"struct.std::__1::pair.247"* dereferenceable(16) %6) #13
  %16 = bitcast %"struct.std::__1::pair.46"* %3 to { %"struct.std::__1::__hash_node_base"*, i8 }*
  %17 = load { %"struct.std::__1::__hash_node_base"*, i8 }, { %"struct.std::__1::__hash_node_base"*, i8 }* %16, align 8
  ret { %"struct.std::__1::__hash_node_base"*, i8 } %17
}

; Function Attrs: noinline nounwind optnone ssp uwtable
define linkonce_odr void @_ZNSt3__14pairIN4LL2W8FastmathENS_12basic_stringIcNS_11char_traitsIcEENS_9allocatorIcEEEEED1Ev(%"struct.std::__1::pair"*) unnamed_addr #1 align 2 {
  %2 = alloca %"struct.std::__1::pair"*, align 8
  store %"struct.std::__1::pair"* %0, %"struct.std::__1::pair"** %2, align 8
  %3 = load %"struct.std::__1::pair"*, %"struct.std::__1::pair"** %2, align 8
  call void @_ZNSt3__14pairIN4LL2W8FastmathENS_12basic_stringIcNS_11char_traitsIcEENS_9allocatorIcEEEEED2Ev(%"struct.std::__1::pair"* %3) #13
  ret void
}

; Function Attrs: noinline optnone ssp uwtable
define linkonce_odr hidden dereferenceable(8) %"class.std::__1::__hash_map_iterator"* @_ZNSt3__119__hash_map_iteratorINS_15__hash_iteratorIPNS_11__hash_nodeINS_17__hash_value_typeIN4LL2W8FastmathENS_12basic_stringIcNS_11char_traitsIcEENS_9allocatorIcEEEEEEPvEEEEEppEv(%"class.std::__1::__hash_map_iterator"*) #0 align 2 {
  %2 = alloca %"class.std::__1::__hash_map_iterator"*, align 8
  store %"class.std::__1::__hash_map_iterator"* %0, %"class.std::__1::__hash_map_iterator"** %2, align 8
  %3 = load %"class.std::__1::__hash_map_iterator"*, %"class.std::__1::__hash_map_iterator"** %2, align 8
  %4 = getelementptr inbounds %"class.std::__1::__hash_map_iterator", %"class.std::__1::__hash_map_iterator"* %3, i32 0, i32 0
  %5 = call dereferenceable(8) %"class.std::__1::__hash_iterator"* @_ZNSt3__115__hash_iteratorIPNS_11__hash_nodeINS_17__hash_value_typeIN4LL2W8FastmathENS_12basic_stringIcNS_11char_traitsIcEENS_9allocatorIcEEEEEEPvEEEppEv(%"class.std::__1::__hash_iterator"* %4)
  ret %"class.std::__1::__hash_map_iterator"* %3
}

; Function Attrs: noinline nounwind optnone ssp uwtable
define linkonce_odr hidden dereferenceable(8) %"class.std::__1::__list_iterator"* @_ZNSt3__115__list_iteratorIPN4LL2W7ASTNodeEPvEppEv(%"class.std::__1::__list_iterator"*) #1 align 2 {
  %2 = alloca %"class.std::__1::__list_iterator"*, align 8
  store %"class.std::__1::__list_iterator"* %0, %"class.std::__1::__list_iterator"** %2, align 8
  %3 = load %"class.std::__1::__list_iterator"*, %"class.std::__1::__list_iterator"** %2, align 8
  %4 = getelementptr inbounds %"class.std::__1::__list_iterator", %"class.std::__1::__list_iterator"* %3, i32 0, i32 0
  %5 = load %"struct.std::__1::__list_node_base"*, %"struct.std::__1::__list_node_base"** %4, align 8
  %6 = getelementptr inbounds %"struct.std::__1::__list_node_base", %"struct.std::__1::__list_node_base"* %5, i32 0, i32 1
  %7 = load %"struct.std::__1::__list_node_base"*, %"struct.std::__1::__list_node_base"** %6, align 8
  %8 = getelementptr inbounds %"class.std::__1::__list_iterator", %"class.std::__1::__list_iterator"* %3, i32 0, i32 0
  store %"struct.std::__1::__list_node_base"* %7, %"struct.std::__1::__list_node_base"** %8, align 8
  ret %"class.std::__1::__list_iterator"* %3
}

declare %"struct.LL2W::Type"* @_ZN4LL2W7getTypeEPKNS_7ASTNodeE(%"class.LL2W::ASTNode"*) #2

declare %"struct.LL2W::Value"* @_ZN4LL2W8getValueEPKNS_7ASTNodeE(%"class.LL2W::ASTNode"*) #2

; Function Attrs: noinline nounwind optnone ssp uwtable
define linkonce_odr void @_ZNSt3__113unordered_setIN4LL2W8FastmathENS_4hashIS2_EENS_8equal_toIS2_EENS_9allocatorIS2_EEED1Ev(%"class.std::__1::unordered_set"*) unnamed_addr #1 align 2 {
  %2 = alloca %"class.std::__1::unordered_set"*, align 8
  store %"class.std::__1::unordered_set"* %0, %"class.std::__1::unordered_set"** %2, align 8
  %3 = load %"class.std::__1::unordered_set"*, %"class.std::__1::unordered_set"** %2, align 8
  call void @_ZNSt3__113unordered_setIN4LL2W8FastmathENS_4hashIS2_EENS_8equal_toIS2_EENS_9allocatorIS2_EEED2Ev(%"class.std::__1::unordered_set"* %3) #13
  ret void
}

; Function Attrs: noinline nounwind optnone ssp uwtable
define linkonce_odr void @_ZN4LL2W15InstructionNodeD2Ev(%"struct.LL2W::InstructionNode"*) unnamed_addr #1 align 2 {
  %2 = alloca %"struct.LL2W::InstructionNode"*, align 8
  store %"struct.LL2W::InstructionNode"* %0, %"struct.LL2W::InstructionNode"** %2, align 8
  %3 = load %"struct.LL2W::InstructionNode"*, %"struct.LL2W::InstructionNode"** %2, align 8
  %4 = bitcast %"struct.LL2W::InstructionNode"* %3 to %"class.LL2W::ASTNode"*
  call void @_ZN4LL2W7ASTNodeD2Ev(%"class.LL2W::ASTNode"* %4) #13
  ret void
}

; Function Attrs: noinline optnone ssp uwtable
define void @_ZN4LL2W10SelectNodeC1EPNS_7ASTNodeES2_S2_S2_S2_S2_S2_S2_(%"struct.LL2W::SelectNode"*, %"class.LL2W::ASTNode"*, %"class.LL2W::ASTNode"*, %"class.LL2W::ASTNode"*, %"class.LL2W::ASTNode"*, %"class.LL2W::ASTNode"*, %"class.LL2W::ASTNode"*, %"class.LL2W::ASTNode"*, %"class.LL2W::ASTNode"*) unnamed_addr #0 align 2 {
  %10 = alloca %"struct.LL2W::SelectNode"*, align 8
  %11 = alloca %"class.LL2W::ASTNode"*, align 8
  %12 = alloca %"class.LL2W::ASTNode"*, align 8
  %13 = alloca %"class.LL2W::ASTNode"*, align 8
  %14 = alloca %"class.LL2W::ASTNode"*, align 8
  %15 = alloca %"class.LL2W::ASTNode"*, align 8
  %16 = alloca %"class.LL2W::ASTNode"*, align 8
  %17 = alloca %"class.LL2W::ASTNode"*, align 8
  %18 = alloca %"class.LL2W::ASTNode"*, align 8
  store %"struct.LL2W::SelectNode"* %0, %"struct.LL2W::SelectNode"** %10, align 8
  store %"class.LL2W::ASTNode"* %1, %"class.LL2W::ASTNode"** %11, align 8
  store %"class.LL2W::ASTNode"* %2, %"class.LL2W::ASTNode"** %12, align 8
  store %"class.LL2W::ASTNode"* %3, %"class.LL2W::ASTNode"** %13, align 8
  store %"class.LL2W::ASTNode"* %4, %"class.LL2W::ASTNode"** %14, align 8
  store %"class.LL2W::ASTNode"* %5, %"class.LL2W::ASTNode"** %15, align 8
  store %"class.LL2W::ASTNode"* %6, %"class.LL2W::ASTNode"** %16, align 8
  store %"class.LL2W::ASTNode"* %7, %"class.LL2W::ASTNode"** %17, align 8
  store %"class.LL2W::ASTNode"* %8, %"class.LL2W::ASTNode"** %18, align 8
  %19 = load %"struct.LL2W::SelectNode"*, %"struct.LL2W::SelectNode"** %10, align 8
  %20 = load %"class.LL2W::ASTNode"*, %"class.LL2W::ASTNode"** %11, align 8
  %21 = load %"class.LL2W::ASTNode"*, %"class.LL2W::ASTNode"** %12, align 8
  %22 = load %"class.LL2W::ASTNode"*, %"class.LL2W::ASTNode"** %13, align 8
  %23 = load %"class.LL2W::ASTNode"*, %"class.LL2W::ASTNode"** %14, align 8
  %24 = load %"class.LL2W::ASTNode"*, %"class.LL2W::ASTNode"** %15, align 8
  %25 = load %"class.LL2W::ASTNode"*, %"class.LL2W::ASTNode"** %16, align 8
  %26 = load %"class.LL2W::ASTNode"*, %"class.LL2W::ASTNode"** %17, align 8
  %27 = load %"class.LL2W::ASTNode"*, %"class.LL2W::ASTNode"** %18, align 8
  call void @_ZN4LL2W10SelectNodeC2EPNS_7ASTNodeES2_S2_S2_S2_S2_S2_S2_(%"struct.LL2W::SelectNode"* %19, %"class.LL2W::ASTNode"* %20, %"class.LL2W::ASTNode"* %21, %"class.LL2W::ASTNode"* %22, %"class.LL2W::ASTNode"* %23, %"class.LL2W::ASTNode"* %24, %"class.LL2W::ASTNode"* %25, %"class.LL2W::ASTNode"* %26, %"class.LL2W::ASTNode"* %27)
  ret void
}

; Function Attrs: noinline nounwind optnone ssp uwtable
define void @_ZN4LL2W10SelectNodeD2Ev(%"struct.LL2W::SelectNode"*) unnamed_addr #1 align 2 {
  %2 = alloca %"struct.LL2W::SelectNode"*, align 8
  store %"struct.LL2W::SelectNode"* %0, %"struct.LL2W::SelectNode"** %2, align 8
  %3 = load %"struct.LL2W::SelectNode"*, %"struct.LL2W::SelectNode"** %2, align 8
  %4 = bitcast %"struct.LL2W::SelectNode"* %3 to i32 (...)***
  store i32 (...)** bitcast (i8** getelementptr inbounds ({ [6 x i8*] }, { [6 x i8*] }* @_ZTVN4LL2W10SelectNodeE, i32 0, inrange i32 0, i32 2) to i32 (...)**), i32 (...)*** %4, align 8
  %5 = getelementptr inbounds %"struct.LL2W::SelectNode", %"struct.LL2W::SelectNode"* %3, i32 0, i32 3
  %6 = load %"struct.LL2W::Type"*, %"struct.LL2W::Type"** %5, align 8
  %7 = icmp eq %"struct.LL2W::Type"* %6, null
  br i1 %7, label %13, label %8

; <label>:8:                                      ; preds = %1
  %9 = bitcast %"struct.LL2W::Type"* %6 to void (%"struct.LL2W::Type"*)***
  %10 = load void (%"struct.LL2W::Type"*)**, void (%"struct.LL2W::Type"*)*** %9, align 8
  %11 = getelementptr inbounds void (%"struct.LL2W::Type"*)*, void (%"struct.LL2W::Type"*)** %10, i64 2
  %12 = load void (%"struct.LL2W::Type"*)*, void (%"struct.LL2W::Type"*)** %11, align 8
  call void %12(%"struct.LL2W::Type"* %6) #13
  br label %13

; <label>:13:                                     ; preds = %8, %1
  %14 = getelementptr inbounds %"struct.LL2W::SelectNode", %"struct.LL2W::SelectNode"* %3, i32 0, i32 6
  %15 = load %"struct.LL2W::Value"*, %"struct.LL2W::Value"** %14, align 8
  %16 = icmp eq %"struct.LL2W::Value"* %15, null
  br i1 %16, label %22, label %17

; <label>:17:                                     ; preds = %13
  %18 = bitcast %"struct.LL2W::Value"* %15 to void (%"struct.LL2W::Value"*)***
  %19 = load void (%"struct.LL2W::Value"*)**, void (%"struct.LL2W::Value"*)*** %18, align 8
  %20 = getelementptr inbounds void (%"struct.LL2W::Value"*)*, void (%"struct.LL2W::Value"*)** %19, i64 2
  %21 = load void (%"struct.LL2W::Value"*)*, void (%"struct.LL2W::Value"*)** %20, align 8
  call void %21(%"struct.LL2W::Value"* %15) #13
  br label %22

; <label>:22:                                     ; preds = %17, %13
  %23 = getelementptr inbounds %"struct.LL2W::SelectNode", %"struct.LL2W::SelectNode"* %3, i32 0, i32 4
  %24 = load %"struct.LL2W::Type"*, %"struct.LL2W::Type"** %23, align 8
  %25 = icmp eq %"struct.LL2W::Type"* %24, null
  br i1 %25, label %31, label %26

; <label>:26:                                     ; preds = %22
  %27 = bitcast %"struct.LL2W::Type"* %24 to void (%"struct.LL2W::Type"*)***
  %28 = load void (%"struct.LL2W::Type"*)**, void (%"struct.LL2W::Type"*)*** %27, align 8
  %29 = getelementptr inbounds void (%"struct.LL2W::Type"*)*, void (%"struct.LL2W::Type"*)** %28, i64 2
  %30 = load void (%"struct.LL2W::Type"*)*, void (%"struct.LL2W::Type"*)** %29, align 8
  call void %30(%"struct.LL2W::Type"* %24) #13
  br label %31

; <label>:31:                                     ; preds = %26, %22
  %32 = getelementptr inbounds %"struct.LL2W::SelectNode", %"struct.LL2W::SelectNode"* %3, i32 0, i32 7
  %33 = load %"struct.LL2W::Value"*, %"struct.LL2W::Value"** %32, align 8
  %34 = icmp eq %"struct.LL2W::Value"* %33, null
  br i1 %34, label %40, label %35

; <label>:35:                                     ; preds = %31
  %36 = bitcast %"struct.LL2W::Value"* %33 to void (%"struct.LL2W::Value"*)***
  %37 = load void (%"struct.LL2W::Value"*)**, void (%"struct.LL2W::Value"*)*** %36, align 8
  %38 = getelementptr inbounds void (%"struct.LL2W::Value"*)*, void (%"struct.LL2W::Value"*)** %37, i64 2
  %39 = load void (%"struct.LL2W::Value"*)*, void (%"struct.LL2W::Value"*)** %38, align 8
  call void %39(%"struct.LL2W::Value"* %33) #13
  br label %40

; <label>:40:                                     ; preds = %35, %31
  %41 = getelementptr inbounds %"struct.LL2W::SelectNode", %"struct.LL2W::SelectNode"* %3, i32 0, i32 5
  %42 = load %"struct.LL2W::Type"*, %"struct.LL2W::Type"** %41, align 8
  %43 = icmp eq %"struct.LL2W::Type"* %42, null
  br i1 %43, label %49, label %44

; <label>:44:                                     ; preds = %40
  %45 = bitcast %"struct.LL2W::Type"* %42 to void (%"struct.LL2W::Type"*)***
  %46 = load void (%"struct.LL2W::Type"*)**, void (%"struct.LL2W::Type"*)*** %45, align 8
  %47 = getelementptr inbounds void (%"struct.LL2W::Type"*)*, void (%"struct.LL2W::Type"*)** %46, i64 2
  %48 = load void (%"struct.LL2W::Type"*)*, void (%"struct.LL2W::Type"*)** %47, align 8
  call void %48(%"struct.LL2W::Type"* %42) #13
  br label %49

; <label>:49:                                     ; preds = %44, %40
  %50 = getelementptr inbounds %"struct.LL2W::SelectNode", %"struct.LL2W::SelectNode"* %3, i32 0, i32 8
  %51 = load %"struct.LL2W::Value"*, %"struct.LL2W::Value"** %50, align 8
  %52 = icmp eq %"struct.LL2W::Value"* %51, null
  br i1 %52, label %58, label %53

; <label>:53:                                     ; preds = %49
  %54 = bitcast %"struct.LL2W::Value"* %51 to void (%"struct.LL2W::Value"*)***
  %55 = load void (%"struct.LL2W::Value"*)**, void (%"struct.LL2W::Value"*)*** %54, align 8
  %56 = getelementptr inbounds void (%"struct.LL2W::Value"*)*, void (%"struct.LL2W::Value"*)** %55, i64 2
  %57 = load void (%"struct.LL2W::Value"*)*, void (%"struct.LL2W::Value"*)** %56, align 8
  call void %57(%"struct.LL2W::Value"* %51) #13
  br label %58

; <label>:58:                                     ; preds = %53, %49
  %59 = getelementptr inbounds %"struct.LL2W::SelectNode", %"struct.LL2W::SelectNode"* %3, i32 0, i32 2
  call void @_ZNSt3__113unordered_setIN4LL2W8FastmathENS_4hashIS2_EENS_8equal_toIS2_EENS_9allocatorIS2_EEED1Ev(%"class.std::__1::unordered_set"* %59) #13
  %60 = bitcast %"struct.LL2W::SelectNode"* %3 to %"struct.LL2W::InstructionNode"*
  call void @_ZN4LL2W15InstructionNodeD2Ev(%"struct.LL2W::InstructionNode"* %60) #13
  ret void
}

; Function Attrs: noinline nounwind optnone ssp uwtable
define void @_ZN4LL2W10SelectNodeD1Ev(%"struct.LL2W::SelectNode"*) unnamed_addr #1 align 2 {
  %2 = alloca %"struct.LL2W::SelectNode"*, align 8
  store %"struct.LL2W::SelectNode"* %0, %"struct.LL2W::SelectNode"** %2, align 8
  %3 = load %"struct.LL2W::SelectNode"*, %"struct.LL2W::SelectNode"** %2, align 8
  call void @_ZN4LL2W10SelectNodeD2Ev(%"struct.LL2W::SelectNode"* %3) #13
  ret void
}

; Function Attrs: noinline nounwind optnone ssp uwtable
define void @_ZN4LL2W10SelectNodeD0Ev(%"struct.LL2W::SelectNode"*) unnamed_addr #1 align 2 {
  %2 = alloca %"struct.LL2W::SelectNode"*, align 8
  store %"struct.LL2W::SelectNode"* %0, %"struct.LL2W::SelectNode"** %2, align 8
  %3 = load %"struct.LL2W::SelectNode"*, %"struct.LL2W::SelectNode"** %2, align 8
  call void @_ZN4LL2W10SelectNodeD1Ev(%"struct.LL2W::SelectNode"* %3) #13
  %4 = bitcast %"struct.LL2W::SelectNode"* %3 to i8*
  call void @_ZdlPv(i8* %4) #14
  ret void
}

; Function Attrs: nobuiltin nounwind
declare void @_ZdlPv(i8*) #4

; Function Attrs: noinline optnone ssp uwtable
define void @_ZNK4LL2W10SelectNode10debugExtraEv(%"class.std::__1::basic_string"* noalias sret, %"struct.LL2W::SelectNode"*) unnamed_addr #0 align 2 personality i8* bitcast (i32 (...)* @__gxx_personality_v0 to i8*) {
  %3 = alloca %"struct.LL2W::SelectNode"*, align 8
  %4 = alloca %"class.std::__1::basic_stringstream", align 8
  %5 = alloca i8*
  %6 = alloca i32
  %7 = alloca %"class.std::__1::unordered_set"*, align 8
  %8 = alloca %"class.std::__1::__hash_const_iterator", align 8
  %9 = alloca %"class.std::__1::__hash_const_iterator", align 8
  %10 = alloca i32, align 4
  %11 = alloca %"class.std::__1::basic_string", align 8
  %12 = alloca %"class.std::__1::basic_string", align 8
  %13 = alloca %"class.std::__1::basic_string", align 8
  %14 = alloca %"class.std::__1::basic_string", align 8
  %15 = alloca %"class.std::__1::basic_string", align 8
  %16 = alloca %"class.std::__1::basic_string", align 8
  store %"struct.LL2W::SelectNode"* %1, %"struct.LL2W::SelectNode"** %3, align 8
  %17 = load %"struct.LL2W::SelectNode"*, %"struct.LL2W::SelectNode"** %3, align 8
  call void @_ZNSt3__118basic_stringstreamIcNS_11char_traitsIcEENS_9allocatorIcEEEC1Ej(%"class.std::__1::basic_stringstream"* %4, i32 24)
  %18 = bitcast %"class.std::__1::basic_stringstream"* %4 to i8*
  %19 = getelementptr inbounds i8, i8* %18, i64 16
  %20 = bitcast i8* %19 to %"class.std::__1::basic_ostream"*
  %21 = invoke dereferenceable(160) %"class.std::__1::basic_ostream"* @_ZNSt3__1lsINS_11char_traitsIcEEEERNS_13basic_ostreamIcT_EES6_PKc(%"class.std::__1::basic_ostream"* dereferenceable(160) %20, i8* getelementptr inbounds ([7 x i8], [7 x i8]* @.str, i32 0, i32 0))
          to label %22 unwind label %55

; <label>:22:                                     ; preds = %2
  %23 = getelementptr inbounds %"struct.LL2W::SelectNode", %"struct.LL2W::SelectNode"* %17, i32 0, i32 1
  %24 = load %"class.std::__1::basic_string"*, %"class.std::__1::basic_string"** %23, align 8
  %25 = invoke dereferenceable(160) %"class.std::__1::basic_ostream"* @_ZNSt3__1lsIcNS_11char_traitsIcEENS_9allocatorIcEEEERNS_13basic_ostreamIT_T0_EES9_RKNS_12basic_stringIS6_S7_T1_EE(%"class.std::__1::basic_ostream"* dereferenceable(160) %21, %"class.std::__1::basic_string"* dereferenceable(24) %24)
          to label %26 unwind label %55

; <label>:26:                                     ; preds = %22
  %27 = invoke dereferenceable(160) %"class.std::__1::basic_ostream"* @_ZNSt3__1lsINS_11char_traitsIcEEEERNS_13basic_ostreamIcT_EES6_PKc(%"class.std::__1::basic_ostream"* dereferenceable(160) %25, i8* getelementptr inbounds ([34 x i8], [34 x i8]* @.str.1, i32 0, i32 0))
          to label %28 unwind label %55

; <label>:28:                                     ; preds = %26
  %29 = getelementptr inbounds %"struct.LL2W::SelectNode", %"struct.LL2W::SelectNode"* %17, i32 0, i32 2
  store %"class.std::__1::unordered_set"* %29, %"class.std::__1::unordered_set"** %7, align 8
  %30 = load %"class.std::__1::unordered_set"*, %"class.std::__1::unordered_set"** %7, align 8
  %31 = call %"struct.std::__1::__hash_node_base"* @_ZNKSt3__113unordered_setIN4LL2W8FastmathENS_4hashIS2_EENS_8equal_toIS2_EENS_9allocatorIS2_EEE5beginEv(%"class.std::__1::unordered_set"* %30) #13
  %32 = getelementptr inbounds %"class.std::__1::__hash_const_iterator", %"class.std::__1::__hash_const_iterator"* %8, i32 0, i32 0
  store %"struct.std::__1::__hash_node_base"* %31, %"struct.std::__1::__hash_node_base"** %32, align 8
  %33 = load %"class.std::__1::unordered_set"*, %"class.std::__1::unordered_set"** %7, align 8
  %34 = call %"struct.std::__1::__hash_node_base"* @_ZNKSt3__113unordered_setIN4LL2W8FastmathENS_4hashIS2_EENS_8equal_toIS2_EENS_9allocatorIS2_EEE3endEv(%"class.std::__1::unordered_set"* %33) #13
  %35 = getelementptr inbounds %"class.std::__1::__hash_const_iterator", %"class.std::__1::__hash_const_iterator"* %9, i32 0, i32 0
  store %"struct.std::__1::__hash_node_base"* %34, %"struct.std::__1::__hash_node_base"** %35, align 8
  br label %36

; <label>:36:                                     ; preds = %54, %28
  %37 = invoke zeroext i1 @_ZNSt3__1neERKNS_21__hash_const_iteratorIPNS_11__hash_nodeIN4LL2W8FastmathEPvEEEES9_(%"class.std::__1::__hash_const_iterator"* dereferenceable(8) %8, %"class.std::__1::__hash_const_iterator"* dereferenceable(8) %9)
          to label %38 unwind label %55

; <label>:38:                                     ; preds = %36
  br i1 %37, label %39, label %59

; <label>:39:                                     ; preds = %38
  %40 = invoke dereferenceable(4) i32* @_ZNKSt3__121__hash_const_iteratorIPNS_11__hash_nodeIN4LL2W8FastmathEPvEEEdeEv(%"class.std::__1::__hash_const_iterator"* %8)
          to label %41 unwind label %55

; <label>:41:                                     ; preds = %39
  %42 = load i32, i32* %40, align 4
  store i32 %42, i32* %10, align 4
  %43 = bitcast %"class.std::__1::basic_stringstream"* %4 to i8*
  %44 = getelementptr inbounds i8, i8* %43, i64 16
  %45 = bitcast i8* %44 to %"class.std::__1::basic_ostream"*
  %46 = invoke dereferenceable(160) %"class.std::__1::basic_ostream"* @_ZNSt3__1lsINS_11char_traitsIcEEEERNS_13basic_ostreamIcT_EES6_PKc(%"class.std::__1::basic_ostream"* dereferenceable(160) %45, i8* getelementptr inbounds ([2 x i8], [2 x i8]* @.str.2, i32 0, i32 0))
          to label %47 unwind label %55

; <label>:47:                                     ; preds = %41
  %48 = invoke dereferenceable(24) %"class.std::__1::basic_string"* @_ZNSt3__113unordered_mapIN4LL2W8FastmathENS_12basic_stringIcNS_11char_traitsIcEENS_9allocatorIcEEEENS_4hashIS2_EENS_8equal_toIS2_EENS6_INS_4pairIKS2_S8_EEEEE2atERSE_(%"class.std::__1::unordered_map"* @_ZN4LL2W12fastmath_mapE, i32* dereferenceable(4) %10)
          to label %49 unwind label %55

; <label>:49:                                     ; preds = %47
  %50 = invoke dereferenceable(160) %"class.std::__1::basic_ostream"* @_ZNSt3__1lsIcNS_11char_traitsIcEENS_9allocatorIcEEEERNS_13basic_ostreamIT_T0_EES9_RKNS_12basic_stringIS6_S7_T1_EE(%"class.std::__1::basic_ostream"* dereferenceable(160) %46, %"class.std::__1::basic_string"* dereferenceable(24) %48)
          to label %51 unwind label %55

; <label>:51:                                     ; preds = %49
  br label %52

; <label>:52:                                     ; preds = %51
  %53 = invoke dereferenceable(8) %"class.std::__1::__hash_const_iterator"* @_ZNSt3__121__hash_const_iteratorIPNS_11__hash_nodeIN4LL2W8FastmathEPvEEEppEv(%"class.std::__1::__hash_const_iterator"* %8)
          to label %54 unwind label %55

; <label>:54:                                     ; preds = %52
  br label %36

; <label>:55:                                     ; preds = %128, %64, %59, %52, %49, %47, %41, %39, %36, %26, %22, %2
  %56 = landingpad { i8*, i32 }
          cleanup
  %57 = extractvalue { i8*, i32 } %56, 0
  store i8* %57, i8** %5, align 8
  %58 = extractvalue { i8*, i32 } %56, 1
  store i32 %58, i32* %6, align 4
  br label %159

; <label>:59:                                     ; preds = %38
  %60 = bitcast %"class.std::__1::basic_stringstream"* %4 to i8*
  %61 = getelementptr inbounds i8, i8* %60, i64 16
  %62 = bitcast i8* %61 to %"class.std::__1::basic_ostream"*
  %63 = invoke dereferenceable(160) %"class.std::__1::basic_ostream"* @_ZNSt3__1lsINS_11char_traitsIcEEEERNS_13basic_ostreamIcT_EES6_PKc(%"class.std::__1::basic_ostream"* dereferenceable(160) %62, i8* getelementptr inbounds ([2 x i8], [2 x i8]* @.str.2, i32 0, i32 0))
          to label %64 unwind label %55

; <label>:64:                                     ; preds = %59
  %65 = getelementptr inbounds %"struct.LL2W::SelectNode", %"struct.LL2W::SelectNode"* %17, i32 0, i32 3
  %66 = load %"struct.LL2W::Type"*, %"struct.LL2W::Type"** %65, align 8
  %67 = bitcast %"struct.LL2W::Type"* %66 to void (%"class.std::__1::basic_string"*, %"struct.LL2W::Type"*)***
  %68 = load void (%"class.std::__1::basic_string"*, %"struct.LL2W::Type"*)**, void (%"class.std::__1::basic_string"*, %"struct.LL2W::Type"*)*** %67, align 8
  %69 = getelementptr inbounds void (%"class.std::__1::basic_string"*, %"struct.LL2W::Type"*)*, void (%"class.std::__1::basic_string"*, %"struct.LL2W::Type"*)** %68, i64 0
  %70 = load void (%"class.std::__1::basic_string"*, %"struct.LL2W::Type"*)*, void (%"class.std::__1::basic_string"*, %"struct.LL2W::Type"*)** %69, align 8
  invoke void %70(%"class.std::__1::basic_string"* sret %11, %"struct.LL2W::Type"* %66)
          to label %71 unwind label %55

; <label>:71:                                     ; preds = %64
  %72 = invoke dereferenceable(160) %"class.std::__1::basic_ostream"* @_ZNSt3__1lsIcNS_11char_traitsIcEENS_9allocatorIcEEEERNS_13basic_ostreamIT_T0_EES9_RKNS_12basic_stringIS6_S7_T1_EE(%"class.std::__1::basic_ostream"* dereferenceable(160) %63, %"class.std::__1::basic_string"* dereferenceable(24) %11)
          to label %73 unwind label %130

; <label>:73:                                     ; preds = %71
  %74 = invoke dereferenceable(160) %"class.std::__1::basic_ostream"* @_ZNSt3__1lsINS_11char_traitsIcEEEERNS_13basic_ostreamIcT_EES6_PKc(%"class.std::__1::basic_ostream"* dereferenceable(160) %72, i8* getelementptr inbounds ([2 x i8], [2 x i8]* @.str.2, i32 0, i32 0))
          to label %75 unwind label %130

; <label>:75:                                     ; preds = %73
  %76 = getelementptr inbounds %"struct.LL2W::SelectNode", %"struct.LL2W::SelectNode"* %17, i32 0, i32 6
  %77 = load %"struct.LL2W::Value"*, %"struct.LL2W::Value"** %76, align 8
  %78 = bitcast %"struct.LL2W::Value"* %77 to void (%"class.std::__1::basic_string"*, %"struct.LL2W::Value"*)***
  %79 = load void (%"class.std::__1::basic_string"*, %"struct.LL2W::Value"*)**, void (%"class.std::__1::basic_string"*, %"struct.LL2W::Value"*)*** %78, align 8
  %80 = getelementptr inbounds void (%"class.std::__1::basic_string"*, %"struct.LL2W::Value"*)*, void (%"class.std::__1::basic_string"*, %"struct.LL2W::Value"*)** %79, i64 0
  %81 = load void (%"class.std::__1::basic_string"*, %"struct.LL2W::Value"*)*, void (%"class.std::__1::basic_string"*, %"struct.LL2W::Value"*)** %80, align 8
  invoke void %81(%"class.std::__1::basic_string"* sret %12, %"struct.LL2W::Value"* %77)
          to label %82 unwind label %130

; <label>:82:                                     ; preds = %75
  %83 = invoke dereferenceable(160) %"class.std::__1::basic_ostream"* @_ZNSt3__1lsIcNS_11char_traitsIcEENS_9allocatorIcEEEERNS_13basic_ostreamIT_T0_EES9_RKNS_12basic_stringIS6_S7_T1_EE(%"class.std::__1::basic_ostream"* dereferenceable(160) %74, %"class.std::__1::basic_string"* dereferenceable(24) %12)
          to label %84 unwind label %134

; <label>:84:                                     ; preds = %82
  %85 = invoke dereferenceable(160) %"class.std::__1::basic_ostream"* @_ZNSt3__1lsINS_11char_traitsIcEEEERNS_13basic_ostreamIcT_EES6_PKc(%"class.std::__1::basic_ostream"* dereferenceable(160) %83, i8* getelementptr inbounds ([11 x i8], [11 x i8]* @.str.3, i32 0, i32 0))
          to label %86 unwind label %134

; <label>:86:                                     ; preds = %84
  %87 = getelementptr inbounds %"struct.LL2W::SelectNode", %"struct.LL2W::SelectNode"* %17, i32 0, i32 4
  %88 = load %"struct.LL2W::Type"*, %"struct.LL2W::Type"** %87, align 8
  %89 = bitcast %"struct.LL2W::Type"* %88 to void (%"class.std::__1::basic_string"*, %"struct.LL2W::Type"*)***
  %90 = load void (%"class.std::__1::basic_string"*, %"struct.LL2W::Type"*)**, void (%"class.std::__1::basic_string"*, %"struct.LL2W::Type"*)*** %89, align 8
  %91 = getelementptr inbounds void (%"class.std::__1::basic_string"*, %"struct.LL2W::Type"*)*, void (%"class.std::__1::basic_string"*, %"struct.LL2W::Type"*)** %90, i64 0
  %92 = load void (%"class.std::__1::basic_string"*, %"struct.LL2W::Type"*)*, void (%"class.std::__1::basic_string"*, %"struct.LL2W::Type"*)** %91, align 8
  invoke void %92(%"class.std::__1::basic_string"* sret %13, %"struct.LL2W::Type"* %88)
          to label %93 unwind label %134

; <label>:93:                                     ; preds = %86
  %94 = invoke dereferenceable(160) %"class.std::__1::basic_ostream"* @_ZNSt3__1lsIcNS_11char_traitsIcEENS_9allocatorIcEEEERNS_13basic_ostreamIT_T0_EES9_RKNS_12basic_stringIS6_S7_T1_EE(%"class.std::__1::basic_ostream"* dereferenceable(160) %85, %"class.std::__1::basic_string"* dereferenceable(24) %13)
          to label %95 unwind label %138

; <label>:95:                                     ; preds = %93
  %96 = invoke dereferenceable(160) %"class.std::__1::basic_ostream"* @_ZNSt3__1lsINS_11char_traitsIcEEEERNS_13basic_ostreamIcT_EES6_PKc(%"class.std::__1::basic_ostream"* dereferenceable(160) %94, i8* getelementptr inbounds ([2 x i8], [2 x i8]* @.str.2, i32 0, i32 0))
          to label %97 unwind label %138

; <label>:97:                                     ; preds = %95
  %98 = getelementptr inbounds %"struct.LL2W::SelectNode", %"struct.LL2W::SelectNode"* %17, i32 0, i32 7
  %99 = load %"struct.LL2W::Value"*, %"struct.LL2W::Value"** %98, align 8
  %100 = bitcast %"struct.LL2W::Value"* %99 to void (%"class.std::__1::basic_string"*, %"struct.LL2W::Value"*)***
  %101 = load void (%"class.std::__1::basic_string"*, %"struct.LL2W::Value"*)**, void (%"class.std::__1::basic_string"*, %"struct.LL2W::Value"*)*** %100, align 8
  %102 = getelementptr inbounds void (%"class.std::__1::basic_string"*, %"struct.LL2W::Value"*)*, void (%"class.std::__1::basic_string"*, %"struct.LL2W::Value"*)** %101, i64 0
  %103 = load void (%"class.std::__1::basic_string"*, %"struct.LL2W::Value"*)*, void (%"class.std::__1::basic_string"*, %"struct.LL2W::Value"*)** %102, align 8
  invoke void %103(%"class.std::__1::basic_string"* sret %14, %"struct.LL2W::Value"* %99)
          to label %104 unwind label %138

; <label>:104:                                    ; preds = %97
  %105 = invoke dereferenceable(160) %"class.std::__1::basic_ostream"* @_ZNSt3__1lsIcNS_11char_traitsIcEENS_9allocatorIcEEEERNS_13basic_ostreamIT_T0_EES9_RKNS_12basic_stringIS6_S7_T1_EE(%"class.std::__1::basic_ostream"* dereferenceable(160) %96, %"class.std::__1::basic_string"* dereferenceable(24) %14)
          to label %106 unwind label %142

; <label>:106:                                    ; preds = %104
  %107 = invoke dereferenceable(160) %"class.std::__1::basic_ostream"* @_ZNSt3__1lsINS_11char_traitsIcEEEERNS_13basic_ostreamIcT_EES6_PKc(%"class.std::__1::basic_ostream"* dereferenceable(160) %105, i8* getelementptr inbounds ([11 x i8], [11 x i8]* @.str.3, i32 0, i32 0))
          to label %108 unwind label %142

; <label>:108:                                    ; preds = %106
  %109 = getelementptr inbounds %"struct.LL2W::SelectNode", %"struct.LL2W::SelectNode"* %17, i32 0, i32 5
  %110 = load %"struct.LL2W::Type"*, %"struct.LL2W::Type"** %109, align 8
  %111 = bitcast %"struct.LL2W::Type"* %110 to void (%"class.std::__1::basic_string"*, %"struct.LL2W::Type"*)***
  %112 = load void (%"class.std::__1::basic_string"*, %"struct.LL2W::Type"*)**, void (%"class.std::__1::basic_string"*, %"struct.LL2W::Type"*)*** %111, align 8
  %113 = getelementptr inbounds void (%"class.std::__1::basic_string"*, %"struct.LL2W::Type"*)*, void (%"class.std::__1::basic_string"*, %"struct.LL2W::Type"*)** %112, i64 0
  %114 = load void (%"class.std::__1::basic_string"*, %"struct.LL2W::Type"*)*, void (%"class.std::__1::basic_string"*, %"struct.LL2W::Type"*)** %113, align 8
  invoke void %114(%"class.std::__1::basic_string"* sret %15, %"struct.LL2W::Type"* %110)
          to label %115 unwind label %142

; <label>:115:                                    ; preds = %108
  %116 = invoke dereferenceable(160) %"class.std::__1::basic_ostream"* @_ZNSt3__1lsIcNS_11char_traitsIcEENS_9allocatorIcEEEERNS_13basic_ostreamIT_T0_EES9_RKNS_12basic_stringIS6_S7_T1_EE(%"class.std::__1::basic_ostream"* dereferenceable(160) %107, %"class.std::__1::basic_string"* dereferenceable(24) %15)
          to label %117 unwind label %146

; <label>:117:                                    ; preds = %115
  %118 = invoke dereferenceable(160) %"class.std::__1::basic_ostream"* @_ZNSt3__1lsINS_11char_traitsIcEEEERNS_13basic_ostreamIcT_EES6_PKc(%"class.std::__1::basic_ostream"* dereferenceable(160) %116, i8* getelementptr inbounds ([2 x i8], [2 x i8]* @.str.2, i32 0, i32 0))
          to label %119 unwind label %146

; <label>:119:                                    ; preds = %117
  %120 = getelementptr inbounds %"struct.LL2W::SelectNode", %"struct.LL2W::SelectNode"* %17, i32 0, i32 8
  %121 = load %"struct.LL2W::Value"*, %"struct.LL2W::Value"** %120, align 8
  %122 = bitcast %"struct.LL2W::Value"* %121 to void (%"class.std::__1::basic_string"*, %"struct.LL2W::Value"*)***
  %123 = load void (%"class.std::__1::basic_string"*, %"struct.LL2W::Value"*)**, void (%"class.std::__1::basic_string"*, %"struct.LL2W::Value"*)*** %122, align 8
  %124 = getelementptr inbounds void (%"class.std::__1::basic_string"*, %"struct.LL2W::Value"*)*, void (%"class.std::__1::basic_string"*, %"struct.LL2W::Value"*)** %123, i64 0
  %125 = load void (%"class.std::__1::basic_string"*, %"struct.LL2W::Value"*)*, void (%"class.std::__1::basic_string"*, %"struct.LL2W::Value"*)** %124, align 8
  invoke void %125(%"class.std::__1::basic_string"* sret %16, %"struct.LL2W::Value"* %121)
          to label %126 unwind label %146

; <label>:126:                                    ; preds = %119
  %127 = invoke dereferenceable(160) %"class.std::__1::basic_ostream"* @_ZNSt3__1lsIcNS_11char_traitsIcEENS_9allocatorIcEEEERNS_13basic_ostreamIT_T0_EES9_RKNS_12basic_stringIS6_S7_T1_EE(%"class.std::__1::basic_ostream"* dereferenceable(160) %118, %"class.std::__1::basic_string"* dereferenceable(24) %16)
          to label %128 unwind label %150

; <label>:128:                                    ; preds = %126
  call void @_ZNSt3__112basic_stringIcNS_11char_traitsIcEENS_9allocatorIcEEED1Ev(%"class.std::__1::basic_string"* %16) #13
  call void @_ZNSt3__112basic_stringIcNS_11char_traitsIcEENS_9allocatorIcEEED1Ev(%"class.std::__1::basic_string"* %15) #13
  call void @_ZNSt3__112basic_stringIcNS_11char_traitsIcEENS_9allocatorIcEEED1Ev(%"class.std::__1::basic_string"* %14) #13
  call void @_ZNSt3__112basic_stringIcNS_11char_traitsIcEENS_9allocatorIcEEED1Ev(%"class.std::__1::basic_string"* %13) #13
  call void @_ZNSt3__112basic_stringIcNS_11char_traitsIcEENS_9allocatorIcEEED1Ev(%"class.std::__1::basic_string"* %12) #13
  call void @_ZNSt3__112basic_stringIcNS_11char_traitsIcEENS_9allocatorIcEEED1Ev(%"class.std::__1::basic_string"* %11) #13
  invoke void @_ZNKSt3__118basic_stringstreamIcNS_11char_traitsIcEENS_9allocatorIcEEE3strEv(%"class.std::__1::basic_string"* sret %0, %"class.std::__1::basic_stringstream"* %4)
          to label %129 unwind label %55

; <label>:129:                                    ; preds = %128
  call void @_ZNSt3__118basic_stringstreamIcNS_11char_traitsIcEENS_9allocatorIcEEED1Ev(%"class.std::__1::basic_stringstream"* %4) #13
  ret void

; <label>:130:                                    ; preds = %75, %73, %71
  %131 = landingpad { i8*, i32 }
          cleanup
  %132 = extractvalue { i8*, i32 } %131, 0
  store i8* %132, i8** %5, align 8
  %133 = extractvalue { i8*, i32 } %131, 1
  store i32 %133, i32* %6, align 4
  br label %158

; <label>:134:                                    ; preds = %86, %84, %82
  %135 = landingpad { i8*, i32 }
          cleanup
  %136 = extractvalue { i8*, i32 } %135, 0
  store i8* %136, i8** %5, align 8
  %137 = extractvalue { i8*, i32 } %135, 1
  store i32 %137, i32* %6, align 4
  br label %157

; <label>:138:                                    ; preds = %97, %95, %93
  %139 = landingpad { i8*, i32 }
          cleanup
  %140 = extractvalue { i8*, i32 } %139, 0
  store i8* %140, i8** %5, align 8
  %141 = extractvalue { i8*, i32 } %139, 1
  store i32 %141, i32* %6, align 4
  br label %156

; <label>:142:                                    ; preds = %108, %106, %104
  %143 = landingpad { i8*, i32 }
          cleanup
  %144 = extractvalue { i8*, i32 } %143, 0
  store i8* %144, i8** %5, align 8
  %145 = extractvalue { i8*, i32 } %143, 1
  store i32 %145, i32* %6, align 4
  br label %155

; <label>:146:                                    ; preds = %119, %117, %115
  %147 = landingpad { i8*, i32 }
          cleanup
  %148 = extractvalue { i8*, i32 } %147, 0
  store i8* %148, i8** %5, align 8
  %149 = extractvalue { i8*, i32 } %147, 1
  store i32 %149, i32* %6, align 4
  br label %154

; <label>:150:                                    ; preds = %126
  %151 = landingpad { i8*, i32 }
          cleanup
  %152 = extractvalue { i8*, i32 } %151, 0
  store i8* %152, i8** %5, align 8
  %153 = extractvalue { i8*, i32 } %151, 1
  store i32 %153, i32* %6, align 4
  call void @_ZNSt3__112basic_stringIcNS_11char_traitsIcEENS_9allocatorIcEEED1Ev(%"class.std::__1::basic_string"* %16) #13
  br label %154

; <label>:154:                                    ; preds = %150, %146
  call void @_ZNSt3__112basic_stringIcNS_11char_traitsIcEENS_9allocatorIcEEED1Ev(%"class.std::__1::basic_string"* %15) #13
  br label %155

; <label>:155:                                    ; preds = %154, %142
  call void @_ZNSt3__112basic_stringIcNS_11char_traitsIcEENS_9allocatorIcEEED1Ev(%"class.std::__1::basic_string"* %14) #13
  br label %156

; <label>:156:                                    ; preds = %155, %138
  call void @_ZNSt3__112basic_stringIcNS_11char_traitsIcEENS_9allocatorIcEEED1Ev(%"class.std::__1::basic_string"* %13) #13
  br label %157

; <label>:157:                                    ; preds = %156, %134
  call void @_ZNSt3__112basic_stringIcNS_11char_traitsIcEENS_9allocatorIcEEED1Ev(%"class.std::__1::basic_string"* %12) #13
  br label %158

; <label>:158:                                    ; preds = %157, %130
  call void @_ZNSt3__112basic_stringIcNS_11char_traitsIcEENS_9allocatorIcEEED1Ev(%"class.std::__1::basic_string"* %11) #13
  br label %159

; <label>:159:                                    ; preds = %158, %55
  call void @_ZNSt3__118basic_stringstreamIcNS_11char_traitsIcEENS_9allocatorIcEEED1Ev(%"class.std::__1::basic_stringstream"* %4) #13
  br label %160

; <label>:160:                                    ; preds = %159
  %161 = load i8*, i8** %5, align 8
  %162 = load i32, i32* %6, align 4
  %163 = insertvalue { i8*, i32 } undef, i8* %161, 0
  %164 = insertvalue { i8*, i32 } %163, i32 %162, 1
  resume { i8*, i32 } %164
}

; Function Attrs: noinline optnone ssp uwtable
define linkonce_odr hidden void @_ZNSt3__118basic_stringstreamIcNS_11char_traitsIcEENS_9allocatorIcEEEC1Ej(%"class.std::__1::basic_stringstream"*, i32) unnamed_addr #0 align 2 personality i8* bitcast (i32 (...)* @__gxx_personality_v0 to i8*) {
  %3 = alloca %"class.std::__1::basic_stringstream"*, align 8
  %4 = alloca i32, align 4
  %5 = alloca i8*
  %6 = alloca i32
  store %"class.std::__1::basic_stringstream"* %0, %"class.std::__1::basic_stringstream"** %3, align 8
  store i32 %1, i32* %4, align 4
  %7 = load %"class.std::__1::basic_stringstream"*, %"class.std::__1::basic_stringstream"** %3, align 8
  %8 = bitcast %"class.std::__1::basic_stringstream"* %7 to i8*
  %9 = getelementptr inbounds i8, i8* %8, i64 128
  %10 = bitcast i8* %9 to %"class.std::__1::basic_ios"*
  call void @_ZNSt3__19basic_iosIcNS_11char_traitsIcEEEC2Ev(%"class.std::__1::basic_ios"* %10)
  %11 = bitcast %"class.std::__1::basic_stringstream"* %7 to i32 (...)***
  store i32 (...)** bitcast (i8** getelementptr inbounds ({ [5 x i8*], [5 x i8*], [5 x i8*] }, { [5 x i8*], [5 x i8*], [5 x i8*] }* @_ZTVNSt3__118basic_stringstreamIcNS_11char_traitsIcEENS_9allocatorIcEEEE, i32 0, inrange i32 0, i32 3) to i32 (...)**), i32 (...)*** %11, align 8
  %12 = bitcast %"class.std::__1::basic_stringstream"* %7 to i8*
  %13 = getelementptr inbounds i8, i8* %12, i64 128
  %14 = bitcast i8* %13 to i32 (...)***
  store i32 (...)** bitcast (i8** getelementptr inbounds ({ [5 x i8*], [5 x i8*], [5 x i8*] }, { [5 x i8*], [5 x i8*], [5 x i8*] }* @_ZTVNSt3__118basic_stringstreamIcNS_11char_traitsIcEENS_9allocatorIcEEEE, i32 0, inrange i32 2, i32 3) to i32 (...)**), i32 (...)*** %14, align 8
  %15 = bitcast %"class.std::__1::basic_stringstream"* %7 to i8*
  %16 = getelementptr inbounds i8, i8* %15, i64 16
  %17 = bitcast i8* %16 to i32 (...)***
  store i32 (...)** bitcast (i8** getelementptr inbounds ({ [5 x i8*], [5 x i8*], [5 x i8*] }, { [5 x i8*], [5 x i8*], [5 x i8*] }* @_ZTVNSt3__118basic_stringstreamIcNS_11char_traitsIcEENS_9allocatorIcEEEE, i32 0, inrange i32 1, i32 3) to i32 (...)**), i32 (...)*** %17, align 8
  %18 = bitcast %"class.std::__1::basic_stringstream"* %7 to %"class.std::__1::basic_iostream"*
  %19 = getelementptr inbounds %"class.std::__1::basic_stringstream", %"class.std::__1::basic_stringstream"* %7, i32 0, i32 1
  %20 = bitcast %"class.std::__1::basic_stringbuf"* %19 to %"class.std::__1::basic_streambuf"*
  invoke void @_ZNSt3__114basic_iostreamIcNS_11char_traitsIcEEEC2EPNS_15basic_streambufIcS2_EE(%"class.std::__1::basic_iostream"* %18, i8** getelementptr inbounds ([10 x i8*], [10 x i8*]* @_ZTTNSt3__118basic_stringstreamIcNS_11char_traitsIcEENS_9allocatorIcEEEE, i64 0, i64 1), %"class.std::__1::basic_streambuf"* %20)
          to label %21 unwind label %32

; <label>:21:                                     ; preds = %2
  %22 = bitcast %"class.std::__1::basic_stringstream"* %7 to i32 (...)***
  store i32 (...)** bitcast (i8** getelementptr inbounds ({ [5 x i8*], [5 x i8*], [5 x i8*] }, { [5 x i8*], [5 x i8*], [5 x i8*] }* @_ZTVNSt3__118basic_stringstreamIcNS_11char_traitsIcEENS_9allocatorIcEEEE, i32 0, inrange i32 0, i32 3) to i32 (...)**), i32 (...)*** %22, align 8
  %23 = bitcast %"class.std::__1::basic_stringstream"* %7 to i8*
  %24 = getelementptr inbounds i8, i8* %23, i64 128
  %25 = bitcast i8* %24 to i32 (...)***
  store i32 (...)** bitcast (i8** getelementptr inbounds ({ [5 x i8*], [5 x i8*], [5 x i8*] }, { [5 x i8*], [5 x i8*], [5 x i8*] }* @_ZTVNSt3__118basic_stringstreamIcNS_11char_traitsIcEENS_9allocatorIcEEEE, i32 0, inrange i32 2, i32 3) to i32 (...)**), i32 (...)*** %25, align 8
  %26 = bitcast %"class.std::__1::basic_stringstream"* %7 to i8*
  %27 = getelementptr inbounds i8, i8* %26, i64 16
  %28 = bitcast i8* %27 to i32 (...)***
  store i32 (...)** bitcast (i8** getelementptr inbounds ({ [5 x i8*], [5 x i8*], [5 x i8*] }, { [5 x i8*], [5 x i8*], [5 x i8*] }* @_ZTVNSt3__118basic_stringstreamIcNS_11char_traitsIcEENS_9allocatorIcEEEE, i32 0, inrange i32 1, i32 3) to i32 (...)**), i32 (...)*** %28, align 8
  %29 = getelementptr inbounds %"class.std::__1::basic_stringstream", %"class.std::__1::basic_stringstream"* %7, i32 0, i32 1
  %30 = load i32, i32* %4, align 4
  invoke void @_ZNSt3__115basic_stringbufIcNS_11char_traitsIcEENS_9allocatorIcEEEC1Ej(%"class.std::__1::basic_stringbuf"* %29, i32 %30)
          to label %31 unwind label %36

; <label>:31:                                     ; preds = %21
  ret void

; <label>:32:                                     ; preds = %2
  %33 = landingpad { i8*, i32 }
          cleanup
  %34 = extractvalue { i8*, i32 } %33, 0
  store i8* %34, i8** %5, align 8
  %35 = extractvalue { i8*, i32 } %33, 1
  store i32 %35, i32* %6, align 4
  br label %41

; <label>:36:                                     ; preds = %21
  %37 = landingpad { i8*, i32 }
          cleanup
  %38 = extractvalue { i8*, i32 } %37, 0
  store i8* %38, i8** %5, align 8
  %39 = extractvalue { i8*, i32 } %37, 1
  store i32 %39, i32* %6, align 4
  %40 = bitcast %"class.std::__1::basic_stringstream"* %7 to %"class.std::__1::basic_iostream"*
  call void @_ZNSt3__114basic_iostreamIcNS_11char_traitsIcEEED2Ev(%"class.std::__1::basic_iostream"* %40, i8** getelementptr inbounds ([10 x i8*], [10 x i8*]* @_ZTTNSt3__118basic_stringstreamIcNS_11char_traitsIcEENS_9allocatorIcEEEE, i64 0, i64 1)) #13
  br label %41

; <label>:41:                                     ; preds = %36, %32
  %42 = bitcast %"class.std::__1::basic_stringstream"* %7 to i8*
  %43 = getelementptr inbounds i8, i8* %42, i64 128
  %44 = bitcast i8* %43 to %"class.std::__1::basic_ios"*
  call void @_ZNSt3__19basic_iosIcNS_11char_traitsIcEEED2Ev(%"class.std::__1::basic_ios"* %44) #13
  br label %45

; <label>:45:                                     ; preds = %41
  %46 = load i8*, i8** %5, align 8
  %47 = load i32, i32* %6, align 4
  %48 = insertvalue { i8*, i32 } undef, i8* %46, 0
  %49 = insertvalue { i8*, i32 } %48, i32 %47, 1
  resume { i8*, i32 } %49
}

; Function Attrs: noinline optnone ssp uwtable
define linkonce_odr dereferenceable(160) %"class.std::__1::basic_ostream"* @_ZNSt3__1lsINS_11char_traitsIcEEEERNS_13basic_ostreamIcT_EES6_PKc(%"class.std::__1::basic_ostream"* dereferenceable(160), i8*) #0 {
  %3 = alloca %"class.std::__1::basic_ostream"*, align 8
  %4 = alloca i8*, align 8
  store %"class.std::__1::basic_ostream"* %0, %"class.std::__1::basic_ostream"** %3, align 8
  store i8* %1, i8** %4, align 8
  %5 = load %"class.std::__1::basic_ostream"*, %"class.std::__1::basic_ostream"** %3, align 8
  %6 = load i8*, i8** %4, align 8
  %7 = load i8*, i8** %4, align 8
  %8 = call i64 @_ZNSt3__111char_traitsIcE6lengthEPKc(i8* %7) #13
  %9 = call dereferenceable(160) %"class.std::__1::basic_ostream"* @_ZNSt3__124__put_character_sequenceIcNS_11char_traitsIcEEEERNS_13basic_ostreamIT_T0_EES7_PKS4_m(%"class.std::__1::basic_ostream"* dereferenceable(160) %5, i8* %6, i64 %8)
  ret %"class.std::__1::basic_ostream"* %9
}

; Function Attrs: noinline optnone ssp uwtable
define linkonce_odr dereferenceable(160) %"class.std::__1::basic_ostream"* @_ZNSt3__1lsIcNS_11char_traitsIcEENS_9allocatorIcEEEERNS_13basic_ostreamIT_T0_EES9_RKNS_12basic_stringIS6_S7_T1_EE(%"class.std::__1::basic_ostream"* dereferenceable(160), %"class.std::__1::basic_string"* dereferenceable(24)) #0 {
  %3 = alloca %"class.std::__1::basic_ostream"*, align 8
  %4 = alloca %"class.std::__1::basic_string"*, align 8
  store %"class.std::__1::basic_ostream"* %0, %"class.std::__1::basic_ostream"** %3, align 8
  store %"class.std::__1::basic_string"* %1, %"class.std::__1::basic_string"** %4, align 8
  %5 = load %"class.std::__1::basic_ostream"*, %"class.std::__1::basic_ostream"** %3, align 8
  %6 = load %"class.std::__1::basic_string"*, %"class.std::__1::basic_string"** %4, align 8
  %7 = call i8* @_ZNKSt3__112basic_stringIcNS_11char_traitsIcEENS_9allocatorIcEEE4dataEv(%"class.std::__1::basic_string"* %6) #13
  %8 = load %"class.std::__1::basic_string"*, %"class.std::__1::basic_string"** %4, align 8
  %9 = call i64 @_ZNKSt3__112basic_stringIcNS_11char_traitsIcEENS_9allocatorIcEEE4sizeEv(%"class.std::__1::basic_string"* %8) #13
  %10 = call dereferenceable(160) %"class.std::__1::basic_ostream"* @_ZNSt3__124__put_character_sequenceIcNS_11char_traitsIcEEEERNS_13basic_ostreamIT_T0_EES7_PKS4_m(%"class.std::__1::basic_ostream"* dereferenceable(160) %5, i8* %7, i64 %9)
  ret %"class.std::__1::basic_ostream"* %10
}

; Function Attrs: noinline nounwind optnone ssp uwtable
define linkonce_odr hidden %"struct.std::__1::__hash_node_base"* @_ZNKSt3__113unordered_setIN4LL2W8FastmathENS_4hashIS2_EENS_8equal_toIS2_EENS_9allocatorIS2_EEE5beginEv(%"class.std::__1::unordered_set"*) #1 align 2 {
  %2 = alloca %"class.std::__1::__hash_const_iterator", align 8
  %3 = alloca %"class.std::__1::unordered_set"*, align 8
  store %"class.std::__1::unordered_set"* %0, %"class.std::__1::unordered_set"** %3, align 8
  %4 = load %"class.std::__1::unordered_set"*, %"class.std::__1::unordered_set"** %3, align 8
  %5 = getelementptr inbounds %"class.std::__1::unordered_set", %"class.std::__1::unordered_set"* %4, i32 0, i32 0
  %6 = call %"struct.std::__1::__hash_node_base"* @_ZNKSt3__112__hash_tableIN4LL2W8FastmathENS_4hashIS2_EENS_8equal_toIS2_EENS_9allocatorIS2_EEE5beginEv(%"class.std::__1::__hash_table"* %5) #13
  %7 = getelementptr inbounds %"class.std::__1::__hash_const_iterator", %"class.std::__1::__hash_const_iterator"* %2, i32 0, i32 0
  store %"struct.std::__1::__hash_node_base"* %6, %"struct.std::__1::__hash_node_base"** %7, align 8
  %8 = getelementptr inbounds %"class.std::__1::__hash_const_iterator", %"class.std::__1::__hash_const_iterator"* %2, i32 0, i32 0
  %9 = load %"struct.std::__1::__hash_node_base"*, %"struct.std::__1::__hash_node_base"** %8, align 8
  ret %"struct.std::__1::__hash_node_base"* %9
}

; Function Attrs: noinline nounwind optnone ssp uwtable
define linkonce_odr hidden %"struct.std::__1::__hash_node_base"* @_ZNKSt3__113unordered_setIN4LL2W8FastmathENS_4hashIS2_EENS_8equal_toIS2_EENS_9allocatorIS2_EEE3endEv(%"class.std::__1::unordered_set"*) #1 align 2 {
  %2 = alloca %"class.std::__1::__hash_const_iterator", align 8
  %3 = alloca %"class.std::__1::unordered_set"*, align 8
  store %"class.std::__1::unordered_set"* %0, %"class.std::__1::unordered_set"** %3, align 8
  %4 = load %"class.std::__1::unordered_set"*, %"class.std::__1::unordered_set"** %3, align 8
  %5 = getelementptr inbounds %"class.std::__1::unordered_set", %"class.std::__1::unordered_set"* %4, i32 0, i32 0
  %6 = call %"struct.std::__1::__hash_node_base"* @_ZNKSt3__112__hash_tableIN4LL2W8FastmathENS_4hashIS2_EENS_8equal_toIS2_EENS_9allocatorIS2_EEE3endEv(%"class.std::__1::__hash_table"* %5) #13
  %7 = getelementptr inbounds %"class.std::__1::__hash_const_iterator", %"class.std::__1::__hash_const_iterator"* %2, i32 0, i32 0
  store %"struct.std::__1::__hash_node_base"* %6, %"struct.std::__1::__hash_node_base"** %7, align 8
  %8 = getelementptr inbounds %"class.std::__1::__hash_const_iterator", %"class.std::__1::__hash_const_iterator"* %2, i32 0, i32 0
  %9 = load %"struct.std::__1::__hash_node_base"*, %"struct.std::__1::__hash_node_base"** %8, align 8
  ret %"struct.std::__1::__hash_node_base"* %9
}

; Function Attrs: noinline optnone ssp uwtable
define linkonce_odr hidden zeroext i1 @_ZNSt3__1neERKNS_21__hash_const_iteratorIPNS_11__hash_nodeIN4LL2W8FastmathEPvEEEES9_(%"class.std::__1::__hash_const_iterator"* dereferenceable(8), %"class.std::__1::__hash_const_iterator"* dereferenceable(8)) #0 {
  %3 = alloca %"class.std::__1::__hash_const_iterator"*, align 8
  %4 = alloca %"class.std::__1::__hash_const_iterator"*, align 8
  store %"class.std::__1::__hash_const_iterator"* %0, %"class.std::__1::__hash_const_iterator"** %3, align 8
  store %"class.std::__1::__hash_const_iterator"* %1, %"class.std::__1::__hash_const_iterator"** %4, align 8
  %5 = load %"class.std::__1::__hash_const_iterator"*, %"class.std::__1::__hash_const_iterator"** %3, align 8
  %6 = load %"class.std::__1::__hash_const_iterator"*, %"class.std::__1::__hash_const_iterator"** %4, align 8
  %7 = call zeroext i1 @_ZNSt3__1eqERKNS_21__hash_const_iteratorIPNS_11__hash_nodeIN4LL2W8FastmathEPvEEEES9_(%"class.std::__1::__hash_const_iterator"* dereferenceable(8) %5, %"class.std::__1::__hash_const_iterator"* dereferenceable(8) %6)
  %8 = xor i1 %7, true
  ret i1 %8
}

; Function Attrs: noinline nounwind optnone ssp uwtable
define linkonce_odr hidden dereferenceable(4) i32* @_ZNKSt3__121__hash_const_iteratorIPNS_11__hash_nodeIN4LL2W8FastmathEPvEEEdeEv(%"class.std::__1::__hash_const_iterator"*) #1 align 2 {
  %2 = alloca %"class.std::__1::__hash_const_iterator"*, align 8
  store %"class.std::__1::__hash_const_iterator"* %0, %"class.std::__1::__hash_const_iterator"** %2, align 8
  %3 = load %"class.std::__1::__hash_const_iterator"*, %"class.std::__1::__hash_const_iterator"** %2, align 8
  %4 = getelementptr inbounds %"class.std::__1::__hash_const_iterator", %"class.std::__1::__hash_const_iterator"* %3, i32 0, i32 0
  %5 = load %"struct.std::__1::__hash_node_base"*, %"struct.std::__1::__hash_node_base"** %4, align 8
  %6 = call %"struct.std::__1::__hash_node"* @_ZNSt3__116__hash_node_baseIPNS_11__hash_nodeIN4LL2W8FastmathEPvEEE8__upcastEv(%"struct.std::__1::__hash_node_base"* %5) #13
  %7 = getelementptr inbounds %"struct.std::__1::__hash_node", %"struct.std::__1::__hash_node"* %6, i32 0, i32 2
  ret i32* %7
}

; Function Attrs: noinline optnone ssp uwtable
define linkonce_odr dereferenceable(24) %"class.std::__1::basic_string"* @_ZNSt3__113unordered_mapIN4LL2W8FastmathENS_12basic_stringIcNS_11char_traitsIcEENS_9allocatorIcEEEENS_4hashIS2_EENS_8equal_toIS2_EENS6_INS_4pairIKS2_S8_EEEEE2atERSE_(%"class.std::__1::unordered_map"*, i32* dereferenceable(4)) #0 align 2 personality i8* bitcast (i32 (...)* @__gxx_personality_v0 to i8*) {
  %3 = alloca %"class.std::__1::unordered_map"*, align 8
  %4 = alloca i32*, align 8
  %5 = alloca %"class.std::__1::__hash_map_iterator", align 8
  %6 = alloca %"class.std::__1::__hash_map_iterator", align 8
  %7 = alloca i8*
  %8 = alloca i32
  store %"class.std::__1::unordered_map"* %0, %"class.std::__1::unordered_map"** %3, align 8
  store i32* %1, i32** %4, align 8
  %9 = load %"class.std::__1::unordered_map"*, %"class.std::__1::unordered_map"** %3, align 8
  %10 = load i32*, i32** %4, align 8
  %11 = call %"struct.std::__1::__hash_node_base.28"* @_ZNSt3__113unordered_mapIN4LL2W8FastmathENS_12basic_stringIcNS_11char_traitsIcEENS_9allocatorIcEEEENS_4hashIS2_EENS_8equal_toIS2_EENS6_INS_4pairIKS2_S8_EEEEE4findERSE_(%"class.std::__1::unordered_map"* %9, i32* dereferenceable(4) %10)
  %12 = getelementptr inbounds %"class.std::__1::__hash_map_iterator", %"class.std::__1::__hash_map_iterator"* %5, i32 0, i32 0
  %13 = getelementptr inbounds %"class.std::__1::__hash_iterator", %"class.std::__1::__hash_iterator"* %12, i32 0, i32 0
  store %"struct.std::__1::__hash_node_base.28"* %11, %"struct.std::__1::__hash_node_base.28"** %13, align 8
  %14 = call %"struct.std::__1::__hash_node_base.28"* @_ZNSt3__113unordered_mapIN4LL2W8FastmathENS_12basic_stringIcNS_11char_traitsIcEENS_9allocatorIcEEEENS_4hashIS2_EENS_8equal_toIS2_EENS6_INS_4pairIKS2_S8_EEEEE3endEv(%"class.std::__1::unordered_map"* %9) #13
  %15 = getelementptr inbounds %"class.std::__1::__hash_map_iterator", %"class.std::__1::__hash_map_iterator"* %6, i32 0, i32 0
  %16 = getelementptr inbounds %"class.std::__1::__hash_iterator", %"class.std::__1::__hash_iterator"* %15, i32 0, i32 0
  store %"struct.std::__1::__hash_node_base.28"* %14, %"struct.std::__1::__hash_node_base.28"** %16, align 8
  %17 = call zeroext i1 @_ZNSt3__1eqERKNS_19__hash_map_iteratorINS_15__hash_iteratorIPNS_11__hash_nodeINS_17__hash_value_typeIN4LL2W8FastmathENS_12basic_stringIcNS_11char_traitsIcEENS_9allocatorIcEEEEEEPvEEEEEESJ_(%"class.std::__1::__hash_map_iterator"* dereferenceable(8) %5, %"class.std::__1::__hash_map_iterator"* dereferenceable(8) %6)
  br i1 %17, label %18, label %26

; <label>:18:                                     ; preds = %2
  %19 = call i8* @__cxa_allocate_exception(i64 16) #13
  %20 = bitcast i8* %19 to %"class.std::out_of_range"*
  invoke void @_ZNSt12out_of_rangeC1EPKc(%"class.std::out_of_range"* %20, i8* getelementptr inbounds ([33 x i8], [33 x i8]* @.str.64, i32 0, i32 0))
          to label %21 unwind label %22

; <label>:21:                                     ; preds = %18
  call void @__cxa_throw(i8* %19, i8* bitcast (i8** @_ZTISt12out_of_range to i8*), i8* bitcast (void (%"class.std::out_of_range"*)* @_ZNSt12out_of_rangeD1Ev to i8*)) #15
  unreachable

; <label>:22:                                     ; preds = %18
  %23 = landingpad { i8*, i32 }
          cleanup
  %24 = extractvalue { i8*, i32 } %23, 0
  store i8* %24, i8** %7, align 8
  %25 = extractvalue { i8*, i32 } %23, 1
  store i32 %25, i32* %8, align 4
  call void @__cxa_free_exception(i8* %19) #13
  br label %29

; <label>:26:                                     ; preds = %2
  %27 = call %"struct.std::__1::pair.45"* @_ZNKSt3__119__hash_map_iteratorINS_15__hash_iteratorIPNS_11__hash_nodeINS_17__hash_value_typeIN4LL2W8FastmathENS_12basic_stringIcNS_11char_traitsIcEENS_9allocatorIcEEEEEEPvEEEEEptEv(%"class.std::__1::__hash_map_iterator"* %5)
  %28 = getelementptr inbounds %"struct.std::__1::pair.45", %"struct.std::__1::pair.45"* %27, i32 0, i32 1
  ret %"class.std::__1::basic_string"* %28

; <label>:29:                                     ; preds = %22
  %30 = load i8*, i8** %7, align 8
  %31 = load i32, i32* %8, align 4
  %32 = insertvalue { i8*, i32 } undef, i8* %30, 0
  %33 = insertvalue { i8*, i32 } %32, i32 %31, 1
  resume { i8*, i32 } %33
}

; Function Attrs: noinline nounwind optnone ssp uwtable
define linkonce_odr hidden dereferenceable(8) %"class.std::__1::__hash_const_iterator"* @_ZNSt3__121__hash_const_iteratorIPNS_11__hash_nodeIN4LL2W8FastmathEPvEEEppEv(%"class.std::__1::__hash_const_iterator"*) #1 align 2 {
  %2 = alloca %"class.std::__1::__hash_const_iterator"*, align 8
  store %"class.std::__1::__hash_const_iterator"* %0, %"class.std::__1::__hash_const_iterator"** %2, align 8
  %3 = load %"class.std::__1::__hash_const_iterator"*, %"class.std::__1::__hash_const_iterator"** %2, align 8
  %4 = getelementptr inbounds %"class.std::__1::__hash_const_iterator", %"class.std::__1::__hash_const_iterator"* %3, i32 0, i32 0
  %5 = load %"struct.std::__1::__hash_node_base"*, %"struct.std::__1::__hash_node_base"** %4, align 8
  %6 = getelementptr inbounds %"struct.std::__1::__hash_node_base", %"struct.std::__1::__hash_node_base"* %5, i32 0, i32 0
  %7 = load %"struct.std::__1::__hash_node_base"*, %"struct.std::__1::__hash_node_base"** %6, align 8
  %8 = getelementptr inbounds %"class.std::__1::__hash_const_iterator", %"class.std::__1::__hash_const_iterator"* %3, i32 0, i32 0
  store %"struct.std::__1::__hash_node_base"* %7, %"struct.std::__1::__hash_node_base"** %8, align 8
  ret %"class.std::__1::__hash_const_iterator"* %3
}

; Function Attrs: noinline optnone ssp uwtable
define linkonce_odr hidden void @_ZNKSt3__118basic_stringstreamIcNS_11char_traitsIcEENS_9allocatorIcEEE3strEv(%"class.std::__1::basic_string"* noalias sret, %"class.std::__1::basic_stringstream"*) #0 align 2 {
  %3 = alloca %"class.std::__1::basic_stringstream"*, align 8
  store %"class.std::__1::basic_stringstream"* %1, %"class.std::__1::basic_stringstream"** %3, align 8
  %4 = load %"class.std::__1::basic_stringstream"*, %"class.std::__1::basic_stringstream"** %3, align 8
  %5 = getelementptr inbounds %"class.std::__1::basic_stringstream", %"class.std::__1::basic_stringstream"* %4, i32 0, i32 1
  call void @_ZNKSt3__115basic_stringbufIcNS_11char_traitsIcEENS_9allocatorIcEEE3strEv(%"class.std::__1::basic_string"* sret %0, %"class.std::__1::basic_stringbuf"* %5)
  ret void
}

; Function Attrs: noinline nounwind optnone ssp uwtable
define linkonce_odr void @_ZNSt3__118basic_stringstreamIcNS_11char_traitsIcEENS_9allocatorIcEEED1Ev(%"class.std::__1::basic_stringstream"*) unnamed_addr #1 align 2 {
  %2 = alloca %"class.std::__1::basic_stringstream"*, align 8
  store %"class.std::__1::basic_stringstream"* %0, %"class.std::__1::basic_stringstream"** %2, align 8
  %3 = load %"class.std::__1::basic_stringstream"*, %"class.std::__1::basic_stringstream"** %2, align 8
  call void @_ZNSt3__118basic_stringstreamIcNS_11char_traitsIcEENS_9allocatorIcEEED2Ev(%"class.std::__1::basic_stringstream"* %3, i8** getelementptr inbounds ([10 x i8*], [10 x i8*]* @_ZTTNSt3__118basic_stringstreamIcNS_11char_traitsIcEENS_9allocatorIcEEEE, i64 0, i64 0)) #13
  %4 = bitcast %"class.std::__1::basic_stringstream"* %3 to i8*
  %5 = getelementptr inbounds i8, i8* %4, i64 128
  %6 = bitcast i8* %5 to %"class.std::__1::basic_ios"*
  call void @_ZNSt3__19basic_iosIcNS_11char_traitsIcEEED2Ev(%"class.std::__1::basic_ios"* %6) #13
  ret void
}

; Function Attrs: noinline optnone ssp uwtable
define void @_ZN4LL2W10AllocaNodeC2EPNS_7ASTNodeES2_S2_S2_S2_S2_(%"struct.LL2W::AllocaNode"*, %"class.LL2W::ASTNode"*, %"class.LL2W::ASTNode"*, %"class.LL2W::ASTNode"*, %"class.LL2W::ASTNode"*, %"class.LL2W::ASTNode"*, %"class.LL2W::ASTNode"*) unnamed_addr #0 align 2 personality i8* bitcast (i32 (...)* @__gxx_personality_v0 to i8*) {
  %8 = alloca %"struct.LL2W::AllocaNode"*, align 8
  %9 = alloca %"class.LL2W::ASTNode"*, align 8
  %10 = alloca %"class.LL2W::ASTNode"*, align 8
  %11 = alloca %"class.LL2W::ASTNode"*, align 8
  %12 = alloca %"class.LL2W::ASTNode"*, align 8
  %13 = alloca %"class.LL2W::ASTNode"*, align 8
  %14 = alloca %"class.LL2W::ASTNode"*, align 8
  %15 = alloca %"class.std::__1::basic_string", align 8
  %16 = alloca i8*
  %17 = alloca i32
  store %"struct.LL2W::AllocaNode"* %0, %"struct.LL2W::AllocaNode"** %8, align 8
  store %"class.LL2W::ASTNode"* %1, %"class.LL2W::ASTNode"** %9, align 8
  store %"class.LL2W::ASTNode"* %2, %"class.LL2W::ASTNode"** %10, align 8
  store %"class.LL2W::ASTNode"* %3, %"class.LL2W::ASTNode"** %11, align 8
  store %"class.LL2W::ASTNode"* %4, %"class.LL2W::ASTNode"** %12, align 8
  store %"class.LL2W::ASTNode"* %5, %"class.LL2W::ASTNode"** %13, align 8
  store %"class.LL2W::ASTNode"* %6, %"class.LL2W::ASTNode"** %14, align 8
  %18 = load %"struct.LL2W::AllocaNode"*, %"struct.LL2W::AllocaNode"** %8, align 8
  %19 = bitcast %"struct.LL2W::AllocaNode"* %18 to %"struct.LL2W::InstructionNode"*
  call void @_ZN4LL2W15InstructionNodeC2Ev(%"struct.LL2W::InstructionNode"* %19)
  %20 = bitcast %"struct.LL2W::AllocaNode"* %18 to i32 (...)***
  store i32 (...)** bitcast (i8** getelementptr inbounds ({ [6 x i8*] }, { [6 x i8*] }* @_ZTVN4LL2W10AllocaNodeE, i32 0, inrange i32 0, i32 2) to i32 (...)**), i32 (...)*** %20, align 8
  %21 = getelementptr inbounds %"struct.LL2W::AllocaNode", %"struct.LL2W::AllocaNode"* %18, i32 0, i32 2
  store i8 0, i8* %21, align 8
  %22 = getelementptr inbounds %"struct.LL2W::AllocaNode", %"struct.LL2W::AllocaNode"* %18, i32 0, i32 4
  store %"struct.LL2W::Type"* null, %"struct.LL2W::Type"** %22, align 8
  %23 = getelementptr inbounds %"struct.LL2W::AllocaNode", %"struct.LL2W::AllocaNode"* %18, i32 0, i32 5
  store %"struct.LL2W::Value"* null, %"struct.LL2W::Value"** %23, align 8
  %24 = getelementptr inbounds %"struct.LL2W::AllocaNode", %"struct.LL2W::AllocaNode"* %18, i32 0, i32 6
  store i32 -1, i32* %24, align 8
  %25 = getelementptr inbounds %"struct.LL2W::AllocaNode", %"struct.LL2W::AllocaNode"* %18, i32 0, i32 7
  store i32 -1, i32* %25, align 4
  %26 = load %"class.LL2W::ASTNode"*, %"class.LL2W::ASTNode"** %9, align 8
  invoke void @_ZNK4LL2W7ASTNode11extractNameEv(%"class.std::__1::basic_string"* sret %15, %"class.LL2W::ASTNode"* %26)
          to label %27 unwind label %51

; <label>:27:                                     ; preds = %7
  %28 = invoke %"class.std::__1::basic_string"* @_ZN4LL2W9StringSet6internERKNSt3__112basic_stringIcNS1_11char_traitsIcEENS1_9allocatorIcEEEE(%"class.std::__1::basic_string"* dereferenceable(24) %15)
          to label %29 unwind label %55

; <label>:29:                                     ; preds = %27
  %30 = getelementptr inbounds %"struct.LL2W::AllocaNode", %"struct.LL2W::AllocaNode"* %18, i32 0, i32 1
  store %"class.std::__1::basic_string"* %28, %"class.std::__1::basic_string"** %30, align 8
  call void @_ZNSt3__112basic_stringIcNS_11char_traitsIcEENS_9allocatorIcEEED1Ev(%"class.std::__1::basic_string"* %15) #13
  %31 = load %"class.LL2W::ASTNode"*, %"class.LL2W::ASTNode"** %9, align 8
  %32 = icmp eq %"class.LL2W::ASTNode"* %31, null
  br i1 %32, label %38, label %33

; <label>:33:                                     ; preds = %29
  %34 = bitcast %"class.LL2W::ASTNode"* %31 to void (%"class.LL2W::ASTNode"*)***
  %35 = load void (%"class.LL2W::ASTNode"*)**, void (%"class.LL2W::ASTNode"*)*** %34, align 8
  %36 = getelementptr inbounds void (%"class.LL2W::ASTNode"*)*, void (%"class.LL2W::ASTNode"*)** %35, i64 1
  %37 = load void (%"class.LL2W::ASTNode"*)*, void (%"class.LL2W::ASTNode"*)** %36, align 8
  call void %37(%"class.LL2W::ASTNode"* %31) #13
  br label %38

; <label>:38:                                     ; preds = %33, %29
  %39 = load %"class.LL2W::ASTNode"*, %"class.LL2W::ASTNode"** %10, align 8
  %40 = icmp ne %"class.LL2W::ASTNode"* %39, null
  br i1 %40, label %41, label %59

; <label>:41:                                     ; preds = %38
  %42 = getelementptr inbounds %"struct.LL2W::AllocaNode", %"struct.LL2W::AllocaNode"* %18, i32 0, i32 2
  store i8 1, i8* %42, align 8
  %43 = load %"class.LL2W::ASTNode"*, %"class.LL2W::ASTNode"** %10, align 8
  %44 = icmp eq %"class.LL2W::ASTNode"* %43, null
  br i1 %44, label %50, label %45

; <label>:45:                                     ; preds = %41
  %46 = bitcast %"class.LL2W::ASTNode"* %43 to void (%"class.LL2W::ASTNode"*)***
  %47 = load void (%"class.LL2W::ASTNode"*)**, void (%"class.LL2W::ASTNode"*)*** %46, align 8
  %48 = getelementptr inbounds void (%"class.LL2W::ASTNode"*)*, void (%"class.LL2W::ASTNode"*)** %47, i64 1
  %49 = load void (%"class.LL2W::ASTNode"*)*, void (%"class.LL2W::ASTNode"*)** %48, align 8
  call void %49(%"class.LL2W::ASTNode"* %43) #13
  br label %50

; <label>:50:                                     ; preds = %45, %41
  br label %59

; <label>:51:                                     ; preds = %117, %98, %83, %79, %77, %74, %59, %7
  %52 = landingpad { i8*, i32 }
          cleanup
  %53 = extractvalue { i8*, i32 } %52, 0
  store i8* %53, i8** %16, align 8
  %54 = extractvalue { i8*, i32 } %52, 1
  store i32 %54, i32* %17, align 4
  br label %134

; <label>:55:                                     ; preds = %27
  %56 = landingpad { i8*, i32 }
          cleanup
  %57 = extractvalue { i8*, i32 } %56, 0
  store i8* %57, i8** %16, align 8
  %58 = extractvalue { i8*, i32 } %56, 1
  store i32 %58, i32* %17, align 4
  call void @_ZNSt3__112basic_stringIcNS_11char_traitsIcEENS_9allocatorIcEEED1Ev(%"class.std::__1::basic_string"* %15) #13
  br label %134

; <label>:59:                                     ; preds = %50, %38
  %60 = load %"class.LL2W::ASTNode"*, %"class.LL2W::ASTNode"** %11, align 8
  %61 = invoke %"struct.LL2W::Type"* @_ZN4LL2W7getTypeEPKNS_7ASTNodeE(%"class.LL2W::ASTNode"* %60)
          to label %62 unwind label %51

; <label>:62:                                     ; preds = %59
  %63 = getelementptr inbounds %"struct.LL2W::AllocaNode", %"struct.LL2W::AllocaNode"* %18, i32 0, i32 3
  store %"struct.LL2W::Type"* %61, %"struct.LL2W::Type"** %63, align 8
  %64 = load %"class.LL2W::ASTNode"*, %"class.LL2W::ASTNode"** %11, align 8
  %65 = icmp eq %"class.LL2W::ASTNode"* %64, null
  br i1 %65, label %71, label %66

; <label>:66:                                     ; preds = %62
  %67 = bitcast %"class.LL2W::ASTNode"* %64 to void (%"class.LL2W::ASTNode"*)***
  %68 = load void (%"class.LL2W::ASTNode"*)**, void (%"class.LL2W::ASTNode"*)*** %67, align 8
  %69 = getelementptr inbounds void (%"class.LL2W::ASTNode"*)*, void (%"class.LL2W::ASTNode"*)** %68, i64 1
  %70 = load void (%"class.LL2W::ASTNode"*)*, void (%"class.LL2W::ASTNode"*)** %69, align 8
  call void %70(%"class.LL2W::ASTNode"* %64) #13
  br label %71

; <label>:71:                                     ; preds = %66, %62
  %72 = load %"class.LL2W::ASTNode"*, %"class.LL2W::ASTNode"** %12, align 8
  %73 = icmp ne %"class.LL2W::ASTNode"* %72, null
  br i1 %73, label %74, label %95

; <label>:74:                                     ; preds = %71
  %75 = load %"class.LL2W::ASTNode"*, %"class.LL2W::ASTNode"** %12, align 8
  %76 = invoke %"class.LL2W::ASTNode"* @_ZNK4LL2W7ASTNode2atEm(%"class.LL2W::ASTNode"* %75, i64 0)
          to label %77 unwind label %51

; <label>:77:                                     ; preds = %74
  %78 = invoke %"struct.LL2W::Type"* @_ZN4LL2W7getTypeEPKNS_7ASTNodeE(%"class.LL2W::ASTNode"* %76)
          to label %79 unwind label %51

; <label>:79:                                     ; preds = %77
  %80 = getelementptr inbounds %"struct.LL2W::AllocaNode", %"struct.LL2W::AllocaNode"* %18, i32 0, i32 4
  store %"struct.LL2W::Type"* %78, %"struct.LL2W::Type"** %80, align 8
  %81 = load %"class.LL2W::ASTNode"*, %"class.LL2W::ASTNode"** %12, align 8
  %82 = invoke %"class.LL2W::ASTNode"* @_ZNK4LL2W7ASTNode2atEm(%"class.LL2W::ASTNode"* %81, i64 1)
          to label %83 unwind label %51

; <label>:83:                                     ; preds = %79
  %84 = invoke %"struct.LL2W::Value"* @_ZN4LL2W8getValueEPKNS_7ASTNodeE(%"class.LL2W::ASTNode"* %82)
          to label %85 unwind label %51

; <label>:85:                                     ; preds = %83
  %86 = getelementptr inbounds %"struct.LL2W::AllocaNode", %"struct.LL2W::AllocaNode"* %18, i32 0, i32 5
  store %"struct.LL2W::Value"* %84, %"struct.LL2W::Value"** %86, align 8
  %87 = load %"class.LL2W::ASTNode"*, %"class.LL2W::ASTNode"** %12, align 8
  %88 = icmp eq %"class.LL2W::ASTNode"* %87, null
  br i1 %88, label %94, label %89

; <label>:89:                                     ; preds = %85
  %90 = bitcast %"class.LL2W::ASTNode"* %87 to void (%"class.LL2W::ASTNode"*)***
  %91 = load void (%"class.LL2W::ASTNode"*)**, void (%"class.LL2W::ASTNode"*)*** %90, align 8
  %92 = getelementptr inbounds void (%"class.LL2W::ASTNode"*)*, void (%"class.LL2W::ASTNode"*)** %91, i64 1
  %93 = load void (%"class.LL2W::ASTNode"*)*, void (%"class.LL2W::ASTNode"*)** %92, align 8
  call void %93(%"class.LL2W::ASTNode"* %87) #13
  br label %94

; <label>:94:                                     ; preds = %89, %85
  br label %95

; <label>:95:                                     ; preds = %94, %71
  %96 = load %"class.LL2W::ASTNode"*, %"class.LL2W::ASTNode"** %13, align 8
  %97 = icmp ne %"class.LL2W::ASTNode"* %96, null
  br i1 %97, label %98, label %114

; <label>:98:                                     ; preds = %95
  %99 = load %"class.LL2W::ASTNode"*, %"class.LL2W::ASTNode"** %13, align 8
  %100 = getelementptr inbounds %"class.LL2W::ASTNode", %"class.LL2W::ASTNode"* %99, i32 0, i32 3
  %101 = load %"class.std::__1::basic_string"*, %"class.std::__1::basic_string"** %100, align 8
  %102 = call i8* @_ZNKSt3__112basic_stringIcNS_11char_traitsIcEENS_9allocatorIcEEE5c_strEv(%"class.std::__1::basic_string"* %101) #13
  %103 = invoke i32 @atoi(i8* %102)
          to label %104 unwind label %51

; <label>:104:                                    ; preds = %98
  %105 = getelementptr inbounds %"struct.LL2W::AllocaNode", %"struct.LL2W::AllocaNode"* %18, i32 0, i32 6
  store i32 %103, i32* %105, align 8
  %106 = load %"class.LL2W::ASTNode"*, %"class.LL2W::ASTNode"** %13, align 8
  %107 = icmp eq %"class.LL2W::ASTNode"* %106, null
  br i1 %107, label %113, label %108

; <label>:108:                                    ; preds = %104
  %109 = bitcast %"class.LL2W::ASTNode"* %106 to void (%"class.LL2W::ASTNode"*)***
  %110 = load void (%"class.LL2W::ASTNode"*)**, void (%"class.LL2W::ASTNode"*)*** %109, align 8
  %111 = getelementptr inbounds void (%"class.LL2W::ASTNode"*)*, void (%"class.LL2W::ASTNode"*)** %110, i64 1
  %112 = load void (%"class.LL2W::ASTNode"*)*, void (%"class.LL2W::ASTNode"*)** %111, align 8
  call void %112(%"class.LL2W::ASTNode"* %106) #13
  br label %113

; <label>:113:                                    ; preds = %108, %104
  br label %114

; <label>:114:                                    ; preds = %113, %95
  %115 = load %"class.LL2W::ASTNode"*, %"class.LL2W::ASTNode"** %14, align 8
  %116 = icmp ne %"class.LL2W::ASTNode"* %115, null
  br i1 %116, label %117, label %133

; <label>:117:                                    ; preds = %114
  %118 = load %"class.LL2W::ASTNode"*, %"class.LL2W::ASTNode"** %14, align 8
  %119 = getelementptr inbounds %"class.LL2W::ASTNode", %"class.LL2W::ASTNode"* %118, i32 0, i32 3
  %120 = load %"class.std::__1::basic_string"*, %"class.std::__1::basic_string"** %119, align 8
  %121 = call i8* @_ZNKSt3__112basic_stringIcNS_11char_traitsIcEENS_9allocatorIcEEE5c_strEv(%"class.std::__1::basic_string"* %120) #13
  %122 = invoke i32 @atoi(i8* %121)
          to label %123 unwind label %51

; <label>:123:                                    ; preds = %117
  %124 = getelementptr inbounds %"struct.LL2W::AllocaNode", %"struct.LL2W::AllocaNode"* %18, i32 0, i32 7
  store i32 %122, i32* %124, align 4
  %125 = load %"class.LL2W::ASTNode"*, %"class.LL2W::ASTNode"** %14, align 8
  %126 = icmp eq %"class.LL2W::ASTNode"* %125, null
  br i1 %126, label %132, label %127

; <label>:127:                                    ; preds = %123
  %128 = bitcast %"class.LL2W::ASTNode"* %125 to void (%"class.LL2W::ASTNode"*)***
  %129 = load void (%"class.LL2W::ASTNode"*)**, void (%"class.LL2W::ASTNode"*)*** %128, align 8
  %130 = getelementptr inbounds void (%"class.LL2W::ASTNode"*)*, void (%"class.LL2W::ASTNode"*)** %129, i64 1
  %131 = load void (%"class.LL2W::ASTNode"*)*, void (%"class.LL2W::ASTNode"*)** %130, align 8
  call void %131(%"class.LL2W::ASTNode"* %125) #13
  br label %132

; <label>:132:                                    ; preds = %127, %123
  br label %133

; <label>:133:                                    ; preds = %132, %114
  ret void

; <label>:134:                                    ; preds = %55, %51
  %135 = bitcast %"struct.LL2W::AllocaNode"* %18 to %"struct.LL2W::InstructionNode"*
  call void @_ZN4LL2W15InstructionNodeD2Ev(%"struct.LL2W::InstructionNode"* %135) #13
  br label %136

; <label>:136:                                    ; preds = %134
  %137 = load i8*, i8** %16, align 8
  %138 = load i32, i32* %17, align 4
  %139 = insertvalue { i8*, i32 } undef, i8* %137, 0
  %140 = insertvalue { i8*, i32 } %139, i32 %138, 1
  resume { i8*, i32 } %140
}

declare %"class.LL2W::ASTNode"* @_ZNK4LL2W7ASTNode2atEm(%"class.LL2W::ASTNode"*, i64) #2

declare i32 @atoi(i8*) #2

; Function Attrs: noinline nounwind optnone ssp uwtable
define linkonce_odr hidden i8* @_ZNKSt3__112basic_stringIcNS_11char_traitsIcEENS_9allocatorIcEEE5c_strEv(%"class.std::__1::basic_string"*) #1 align 2 {
  %2 = alloca %"class.std::__1::basic_string"*, align 8
  store %"class.std::__1::basic_string"* %0, %"class.std::__1::basic_string"** %2, align 8
  %3 = load %"class.std::__1::basic_string"*, %"class.std::__1::basic_string"** %2, align 8
  %4 = call i8* @_ZNKSt3__112basic_stringIcNS_11char_traitsIcEENS_9allocatorIcEEE4dataEv(%"class.std::__1::basic_string"* %3) #13
  ret i8* %4
}

; Function Attrs: noinline optnone ssp uwtable
define void @_ZN4LL2W10AllocaNodeC1EPNS_7ASTNodeES2_S2_S2_S2_S2_(%"struct.LL2W::AllocaNode"*, %"class.LL2W::ASTNode"*, %"class.LL2W::ASTNode"*, %"class.LL2W::ASTNode"*, %"class.LL2W::ASTNode"*, %"class.LL2W::ASTNode"*, %"class.LL2W::ASTNode"*) unnamed_addr #0 align 2 {
  %8 = alloca %"struct.LL2W::AllocaNode"*, align 8
  %9 = alloca %"class.LL2W::ASTNode"*, align 8
  %10 = alloca %"class.LL2W::ASTNode"*, align 8
  %11 = alloca %"class.LL2W::ASTNode"*, align 8
  %12 = alloca %"class.LL2W::ASTNode"*, align 8
  %13 = alloca %"class.LL2W::ASTNode"*, align 8
  %14 = alloca %"class.LL2W::ASTNode"*, align 8
  store %"struct.LL2W::AllocaNode"* %0, %"struct.LL2W::AllocaNode"** %8, align 8
  store %"class.LL2W::ASTNode"* %1, %"class.LL2W::ASTNode"** %9, align 8
  store %"class.LL2W::ASTNode"* %2, %"class.LL2W::ASTNode"** %10, align 8
  store %"class.LL2W::ASTNode"* %3, %"class.LL2W::ASTNode"** %11, align 8
  store %"class.LL2W::ASTNode"* %4, %"class.LL2W::ASTNode"** %12, align 8
  store %"class.LL2W::ASTNode"* %5, %"class.LL2W::ASTNode"** %13, align 8
  store %"class.LL2W::ASTNode"* %6, %"class.LL2W::ASTNode"** %14, align 8
  %15 = load %"struct.LL2W::AllocaNode"*, %"struct.LL2W::AllocaNode"** %8, align 8
  %16 = load %"class.LL2W::ASTNode"*, %"class.LL2W::ASTNode"** %9, align 8
  %17 = load %"class.LL2W::ASTNode"*, %"class.LL2W::ASTNode"** %10, align 8
  %18 = load %"class.LL2W::ASTNode"*, %"class.LL2W::ASTNode"** %11, align 8
  %19 = load %"class.LL2W::ASTNode"*, %"class.LL2W::ASTNode"** %12, align 8
  %20 = load %"class.LL2W::ASTNode"*, %"class.LL2W::ASTNode"** %13, align 8
  %21 = load %"class.LL2W::ASTNode"*, %"class.LL2W::ASTNode"** %14, align 8
  call void @_ZN4LL2W10AllocaNodeC2EPNS_7ASTNodeES2_S2_S2_S2_S2_(%"struct.LL2W::AllocaNode"* %15, %"class.LL2W::ASTNode"* %16, %"class.LL2W::ASTNode"* %17, %"class.LL2W::ASTNode"* %18, %"class.LL2W::ASTNode"* %19, %"class.LL2W::ASTNode"* %20, %"class.LL2W::ASTNode"* %21)
  ret void
}

; Function Attrs: noinline nounwind optnone ssp uwtable
define void @_ZN4LL2W10AllocaNodeD2Ev(%"struct.LL2W::AllocaNode"*) unnamed_addr #1 align 2 {
  %2 = alloca %"struct.LL2W::AllocaNode"*, align 8
  store %"struct.LL2W::AllocaNode"* %0, %"struct.LL2W::AllocaNode"** %2, align 8
  %3 = load %"struct.LL2W::AllocaNode"*, %"struct.LL2W::AllocaNode"** %2, align 8
  %4 = bitcast %"struct.LL2W::AllocaNode"* %3 to i32 (...)***
  store i32 (...)** bitcast (i8** getelementptr inbounds ({ [6 x i8*] }, { [6 x i8*] }* @_ZTVN4LL2W10AllocaNodeE, i32 0, inrange i32 0, i32 2) to i32 (...)**), i32 (...)*** %4, align 8
  %5 = getelementptr inbounds %"struct.LL2W::AllocaNode", %"struct.LL2W::AllocaNode"* %3, i32 0, i32 3
  %6 = load %"struct.LL2W::Type"*, %"struct.LL2W::Type"** %5, align 8
  %7 = icmp eq %"struct.LL2W::Type"* %6, null
  br i1 %7, label %13, label %8

; <label>:8:                                      ; preds = %1
  %9 = bitcast %"struct.LL2W::Type"* %6 to void (%"struct.LL2W::Type"*)***
  %10 = load void (%"struct.LL2W::Type"*)**, void (%"struct.LL2W::Type"*)*** %9, align 8
  %11 = getelementptr inbounds void (%"struct.LL2W::Type"*)*, void (%"struct.LL2W::Type"*)** %10, i64 2
  %12 = load void (%"struct.LL2W::Type"*)*, void (%"struct.LL2W::Type"*)** %11, align 8
  call void %12(%"struct.LL2W::Type"* %6) #13
  br label %13

; <label>:13:                                     ; preds = %8, %1
  %14 = getelementptr inbounds %"struct.LL2W::AllocaNode", %"struct.LL2W::AllocaNode"* %3, i32 0, i32 4
  %15 = load %"struct.LL2W::Type"*, %"struct.LL2W::Type"** %14, align 8
  %16 = icmp ne %"struct.LL2W::Type"* %15, null
  br i1 %16, label %17, label %27

; <label>:17:                                     ; preds = %13
  %18 = getelementptr inbounds %"struct.LL2W::AllocaNode", %"struct.LL2W::AllocaNode"* %3, i32 0, i32 4
  %19 = load %"struct.LL2W::Type"*, %"struct.LL2W::Type"** %18, align 8
  %20 = icmp eq %"struct.LL2W::Type"* %19, null
  br i1 %20, label %26, label %21

; <label>:21:                                     ; preds = %17
  %22 = bitcast %"struct.LL2W::Type"* %19 to void (%"struct.LL2W::Type"*)***
  %23 = load void (%"struct.LL2W::Type"*)**, void (%"struct.LL2W::Type"*)*** %22, align 8
  %24 = getelementptr inbounds void (%"struct.LL2W::Type"*)*, void (%"struct.LL2W::Type"*)** %23, i64 2
  %25 = load void (%"struct.LL2W::Type"*)*, void (%"struct.LL2W::Type"*)** %24, align 8
  call void %25(%"struct.LL2W::Type"* %19) #13
  br label %26

; <label>:26:                                     ; preds = %21, %17
  br label %27

; <label>:27:                                     ; preds = %26, %13
  %28 = getelementptr inbounds %"struct.LL2W::AllocaNode", %"struct.LL2W::AllocaNode"* %3, i32 0, i32 5
  %29 = load %"struct.LL2W::Value"*, %"struct.LL2W::Value"** %28, align 8
  %30 = icmp ne %"struct.LL2W::Value"* %29, null
  br i1 %30, label %31, label %41

; <label>:31:                                     ; preds = %27
  %32 = getelementptr inbounds %"struct.LL2W::AllocaNode", %"struct.LL2W::AllocaNode"* %3, i32 0, i32 5
  %33 = load %"struct.LL2W::Value"*, %"struct.LL2W::Value"** %32, align 8
  %34 = icmp eq %"struct.LL2W::Value"* %33, null
  br i1 %34, label %40, label %35

; <label>:35:                                     ; preds = %31
  %36 = bitcast %"struct.LL2W::Value"* %33 to void (%"struct.LL2W::Value"*)***
  %37 = load void (%"struct.LL2W::Value"*)**, void (%"struct.LL2W::Value"*)*** %36, align 8
  %38 = getelementptr inbounds void (%"struct.LL2W::Value"*)*, void (%"struct.LL2W::Value"*)** %37, i64 2
  %39 = load void (%"struct.LL2W::Value"*)*, void (%"struct.LL2W::Value"*)** %38, align 8
  call void %39(%"struct.LL2W::Value"* %33) #13
  br label %40

; <label>:40:                                     ; preds = %35, %31
  br label %41

; <label>:41:                                     ; preds = %40, %27
  %42 = bitcast %"struct.LL2W::AllocaNode"* %3 to %"struct.LL2W::InstructionNode"*
  call void @_ZN4LL2W15InstructionNodeD2Ev(%"struct.LL2W::InstructionNode"* %42) #13
  ret void
}

; Function Attrs: noinline nounwind optnone ssp uwtable
define void @_ZN4LL2W10AllocaNodeD1Ev(%"struct.LL2W::AllocaNode"*) unnamed_addr #1 align 2 {
  %2 = alloca %"struct.LL2W::AllocaNode"*, align 8
  store %"struct.LL2W::AllocaNode"* %0, %"struct.LL2W::AllocaNode"** %2, align 8
  %3 = load %"struct.LL2W::AllocaNode"*, %"struct.LL2W::AllocaNode"** %2, align 8
  call void @_ZN4LL2W10AllocaNodeD2Ev(%"struct.LL2W::AllocaNode"* %3) #13
  ret void
}

; Function Attrs: noinline nounwind optnone ssp uwtable
define void @_ZN4LL2W10AllocaNodeD0Ev(%"struct.LL2W::AllocaNode"*) unnamed_addr #1 align 2 {
  %2 = alloca %"struct.LL2W::AllocaNode"*, align 8
  store %"struct.LL2W::AllocaNode"* %0, %"struct.LL2W::AllocaNode"** %2, align 8
  %3 = load %"struct.LL2W::AllocaNode"*, %"struct.LL2W::AllocaNode"** %2, align 8
  call void @_ZN4LL2W10AllocaNodeD1Ev(%"struct.LL2W::AllocaNode"* %3) #13
  %4 = bitcast %"struct.LL2W::AllocaNode"* %3 to i8*
  call void @_ZdlPv(i8* %4) #14
  ret void
}

; Function Attrs: noinline optnone ssp uwtable
define void @_ZNK4LL2W10AllocaNode10debugExtraEv(%"class.std::__1::basic_string"* noalias sret, %"struct.LL2W::AllocaNode"*) unnamed_addr #0 align 2 personality i8* bitcast (i32 (...)* @__gxx_personality_v0 to i8*) {
  %3 = alloca %"struct.LL2W::AllocaNode"*, align 8
  %4 = alloca %"class.std::__1::basic_stringstream", align 8
  %5 = alloca i8*
  %6 = alloca i32
  %7 = alloca %"class.std::__1::basic_string", align 8
  %8 = alloca %"class.std::__1::basic_string", align 8
  store %"struct.LL2W::AllocaNode"* %1, %"struct.LL2W::AllocaNode"** %3, align 8
  %9 = load %"struct.LL2W::AllocaNode"*, %"struct.LL2W::AllocaNode"** %3, align 8
  call void @_ZNSt3__118basic_stringstreamIcNS_11char_traitsIcEENS_9allocatorIcEEEC1Ej(%"class.std::__1::basic_stringstream"* %4, i32 24)
  %10 = bitcast %"class.std::__1::basic_stringstream"* %4 to i8*
  %11 = getelementptr inbounds i8, i8* %10, i64 16
  %12 = bitcast i8* %11 to %"class.std::__1::basic_ostream"*
  %13 = invoke dereferenceable(160) %"class.std::__1::basic_ostream"* @_ZNSt3__1lsINS_11char_traitsIcEEEERNS_13basic_ostreamIcT_EES6_PKc(%"class.std::__1::basic_ostream"* dereferenceable(160) %12, i8* getelementptr inbounds ([7 x i8], [7 x i8]* @.str, i32 0, i32 0))
          to label %14 unwind label %30

; <label>:14:                                     ; preds = %2
  %15 = getelementptr inbounds %"struct.LL2W::AllocaNode", %"struct.LL2W::AllocaNode"* %9, i32 0, i32 1
  %16 = load %"class.std::__1::basic_string"*, %"class.std::__1::basic_string"** %15, align 8
  %17 = invoke dereferenceable(160) %"class.std::__1::basic_ostream"* @_ZNSt3__1lsIcNS_11char_traitsIcEENS_9allocatorIcEEEERNS_13basic_ostreamIT_T0_EES9_RKNS_12basic_stringIS6_S7_T1_EE(%"class.std::__1::basic_ostream"* dereferenceable(160) %13, %"class.std::__1::basic_string"* dereferenceable(24) %16)
          to label %18 unwind label %30

; <label>:18:                                     ; preds = %14
  %19 = invoke dereferenceable(160) %"class.std::__1::basic_ostream"* @_ZNSt3__1lsINS_11char_traitsIcEEEERNS_13basic_ostreamIcT_EES6_PKc(%"class.std::__1::basic_ostream"* dereferenceable(160) %17, i8* getelementptr inbounds ([27 x i8], [27 x i8]* @.str.4, i32 0, i32 0))
          to label %20 unwind label %30

; <label>:20:                                     ; preds = %18
  %21 = getelementptr inbounds %"struct.LL2W::AllocaNode", %"struct.LL2W::AllocaNode"* %9, i32 0, i32 2
  %22 = load i8, i8* %21, align 8
  %23 = trunc i8 %22 to i1
  br i1 %23, label %24, label %34

; <label>:24:                                     ; preds = %20
  %25 = bitcast %"class.std::__1::basic_stringstream"* %4 to i8*
  %26 = getelementptr inbounds i8, i8* %25, i64 16
  %27 = bitcast i8* %26 to %"class.std::__1::basic_ostream"*
  %28 = invoke dereferenceable(160) %"class.std::__1::basic_ostream"* @_ZNSt3__1lsINS_11char_traitsIcEEEERNS_13basic_ostreamIcT_EES6_PKc(%"class.std::__1::basic_ostream"* dereferenceable(160) %27, i8* getelementptr inbounds ([25 x i8], [25 x i8]* @.str.5, i32 0, i32 0))
          to label %29 unwind label %30

; <label>:29:                                     ; preds = %24
  br label %34

; <label>:30:                                     ; preds = %103, %100, %96, %91, %82, %77, %43, %38, %24, %18, %14, %2
  %31 = landingpad { i8*, i32 }
          cleanup
  %32 = extractvalue { i8*, i32 } %31, 0
  store i8* %32, i8** %5, align 8
  %33 = extractvalue { i8*, i32 } %31, 1
  store i32 %33, i32* %6, align 4
  br label %105

; <label>:34:                                     ; preds = %29, %20
  %35 = getelementptr inbounds %"struct.LL2W::AllocaNode", %"struct.LL2W::AllocaNode"* %9, i32 0, i32 4
  %36 = load %"struct.LL2W::Type"*, %"struct.LL2W::Type"** %35, align 8
  %37 = icmp ne %"struct.LL2W::Type"* %36, null
  br i1 %37, label %38, label %73

; <label>:38:                                     ; preds = %34
  %39 = bitcast %"class.std::__1::basic_stringstream"* %4 to i8*
  %40 = getelementptr inbounds i8, i8* %39, i64 16
  %41 = bitcast i8* %40 to %"class.std::__1::basic_ostream"*
  %42 = invoke dereferenceable(160) %"class.std::__1::basic_ostream"* @_ZNSt3__1lsINS_11char_traitsIcEEEERNS_13basic_ostreamIcT_EES6_PKc(%"class.std::__1::basic_ostream"* dereferenceable(160) %41, i8* getelementptr inbounds ([11 x i8], [11 x i8]* @.str.3, i32 0, i32 0))
          to label %43 unwind label %30

; <label>:43:                                     ; preds = %38
  %44 = getelementptr inbounds %"struct.LL2W::AllocaNode", %"struct.LL2W::AllocaNode"* %9, i32 0, i32 4
  %45 = load %"struct.LL2W::Type"*, %"struct.LL2W::Type"** %44, align 8
  %46 = bitcast %"struct.LL2W::Type"* %45 to void (%"class.std::__1::basic_string"*, %"struct.LL2W::Type"*)***
  %47 = load void (%"class.std::__1::basic_string"*, %"struct.LL2W::Type"*)**, void (%"class.std::__1::basic_string"*, %"struct.LL2W::Type"*)*** %46, align 8
  %48 = getelementptr inbounds void (%"class.std::__1::basic_string"*, %"struct.LL2W::Type"*)*, void (%"class.std::__1::basic_string"*, %"struct.LL2W::Type"*)** %47, i64 0
  %49 = load void (%"class.std::__1::basic_string"*, %"struct.LL2W::Type"*)*, void (%"class.std::__1::basic_string"*, %"struct.LL2W::Type"*)** %48, align 8
  invoke void %49(%"class.std::__1::basic_string"* sret %7, %"struct.LL2W::Type"* %45)
          to label %50 unwind label %30

; <label>:50:                                     ; preds = %43
  %51 = invoke dereferenceable(160) %"class.std::__1::basic_ostream"* @_ZNSt3__1lsIcNS_11char_traitsIcEENS_9allocatorIcEEEERNS_13basic_ostreamIT_T0_EES9_RKNS_12basic_stringIS6_S7_T1_EE(%"class.std::__1::basic_ostream"* dereferenceable(160) %42, %"class.std::__1::basic_string"* dereferenceable(24) %7)
          to label %52 unwind label %64

; <label>:52:                                     ; preds = %50
  %53 = invoke dereferenceable(160) %"class.std::__1::basic_ostream"* @_ZNSt3__1lsINS_11char_traitsIcEEEERNS_13basic_ostreamIcT_EES6_PKc(%"class.std::__1::basic_ostream"* dereferenceable(160) %51, i8* getelementptr inbounds ([2 x i8], [2 x i8]* @.str.2, i32 0, i32 0))
          to label %54 unwind label %64

; <label>:54:                                     ; preds = %52
  %55 = getelementptr inbounds %"struct.LL2W::AllocaNode", %"struct.LL2W::AllocaNode"* %9, i32 0, i32 5
  %56 = load %"struct.LL2W::Value"*, %"struct.LL2W::Value"** %55, align 8
  %57 = bitcast %"struct.LL2W::Value"* %56 to void (%"class.std::__1::basic_string"*, %"struct.LL2W::Value"*)***
  %58 = load void (%"class.std::__1::basic_string"*, %"struct.LL2W::Value"*)**, void (%"class.std::__1::basic_string"*, %"struct.LL2W::Value"*)*** %57, align 8
  %59 = getelementptr inbounds void (%"class.std::__1::basic_string"*, %"struct.LL2W::Value"*)*, void (%"class.std::__1::basic_string"*, %"struct.LL2W::Value"*)** %58, i64 0
  %60 = load void (%"class.std::__1::basic_string"*, %"struct.LL2W::Value"*)*, void (%"class.std::__1::basic_string"*, %"struct.LL2W::Value"*)** %59, align 8
  invoke void %60(%"class.std::__1::basic_string"* sret %8, %"struct.LL2W::Value"* %56)
          to label %61 unwind label %64

; <label>:61:                                     ; preds = %54
  %62 = invoke dereferenceable(160) %"class.std::__1::basic_ostream"* @_ZNSt3__1lsIcNS_11char_traitsIcEENS_9allocatorIcEEEERNS_13basic_ostreamIT_T0_EES9_RKNS_12basic_stringIS6_S7_T1_EE(%"class.std::__1::basic_ostream"* dereferenceable(160) %53, %"class.std::__1::basic_string"* dereferenceable(24) %8)
          to label %63 unwind label %68

; <label>:63:                                     ; preds = %61
  call void @_ZNSt3__112basic_stringIcNS_11char_traitsIcEENS_9allocatorIcEEED1Ev(%"class.std::__1::basic_string"* %8) #13
  call void @_ZNSt3__112basic_stringIcNS_11char_traitsIcEENS_9allocatorIcEEED1Ev(%"class.std::__1::basic_string"* %7) #13
  br label %73

; <label>:64:                                     ; preds = %54, %52, %50
  %65 = landingpad { i8*, i32 }
          cleanup
  %66 = extractvalue { i8*, i32 } %65, 0
  store i8* %66, i8** %5, align 8
  %67 = extractvalue { i8*, i32 } %65, 1
  store i32 %67, i32* %6, align 4
  br label %72

; <label>:68:                                     ; preds = %61
  %69 = landingpad { i8*, i32 }
          cleanup
  %70 = extractvalue { i8*, i32 } %69, 0
  store i8* %70, i8** %5, align 8
  %71 = extractvalue { i8*, i32 } %69, 1
  store i32 %71, i32* %6, align 4
  call void @_ZNSt3__112basic_stringIcNS_11char_traitsIcEENS_9allocatorIcEEED1Ev(%"class.std::__1::basic_string"* %8) #13
  br label %72

; <label>:72:                                     ; preds = %68, %64
  call void @_ZNSt3__112basic_stringIcNS_11char_traitsIcEENS_9allocatorIcEEED1Ev(%"class.std::__1::basic_string"* %7) #13
  br label %105

; <label>:73:                                     ; preds = %63, %34
  %74 = getelementptr inbounds %"struct.LL2W::AllocaNode", %"struct.LL2W::AllocaNode"* %9, i32 0, i32 6
  %75 = load i32, i32* %74, align 8
  %76 = icmp ne i32 %75, -1
  br i1 %76, label %77, label %87

; <label>:77:                                     ; preds = %73
  %78 = bitcast %"class.std::__1::basic_stringstream"* %4 to i8*
  %79 = getelementptr inbounds i8, i8* %78, i64 16
  %80 = bitcast i8* %79 to %"class.std::__1::basic_ostream"*
  %81 = invoke dereferenceable(160) %"class.std::__1::basic_ostream"* @_ZNSt3__1lsINS_11char_traitsIcEEEERNS_13basic_ostreamIcT_EES6_PKc(%"class.std::__1::basic_ostream"* dereferenceable(160) %80, i8* getelementptr inbounds ([24 x i8], [24 x i8]* @.str.6, i32 0, i32 0))
          to label %82 unwind label %30

; <label>:82:                                     ; preds = %77
  %83 = getelementptr inbounds %"struct.LL2W::AllocaNode", %"struct.LL2W::AllocaNode"* %9, i32 0, i32 6
  %84 = load i32, i32* %83, align 8
  %85 = invoke dereferenceable(160) %"class.std::__1::basic_ostream"* @_ZNSt3__113basic_ostreamIcNS_11char_traitsIcEEElsEi(%"class.std::__1::basic_ostream"* %81, i32 %84)
          to label %86 unwind label %30

; <label>:86:                                     ; preds = %82
  br label %87

; <label>:87:                                     ; preds = %86, %73
  %88 = getelementptr inbounds %"struct.LL2W::AllocaNode", %"struct.LL2W::AllocaNode"* %9, i32 0, i32 7
  %89 = load i32, i32* %88, align 4
  %90 = icmp ne i32 %89, -1
  br i1 %90, label %91, label %103

; <label>:91:                                     ; preds = %87
  %92 = bitcast %"class.std::__1::basic_stringstream"* %4 to i8*
  %93 = getelementptr inbounds i8, i8* %92, i64 16
  %94 = bitcast i8* %93 to %"class.std::__1::basic_ostream"*
  %95 = invoke dereferenceable(160) %"class.std::__1::basic_ostream"* @_ZNSt3__1lsINS_11char_traitsIcEEEERNS_13basic_ostreamIcT_EES6_PKc(%"class.std::__1::basic_ostream"* dereferenceable(160) %94, i8* getelementptr inbounds ([28 x i8], [28 x i8]* @.str.7, i32 0, i32 0))
          to label %96 unwind label %30

; <label>:96:                                     ; preds = %91
  %97 = getelementptr inbounds %"struct.LL2W::AllocaNode", %"struct.LL2W::AllocaNode"* %9, i32 0, i32 7
  %98 = load i32, i32* %97, align 4
  %99 = invoke dereferenceable(160) %"class.std::__1::basic_ostream"* @_ZNSt3__113basic_ostreamIcNS_11char_traitsIcEEElsEi(%"class.std::__1::basic_ostream"* %95, i32 %98)
          to label %100 unwind label %30

; <label>:100:                                    ; preds = %96
  %101 = invoke dereferenceable(160) %"class.std::__1::basic_ostream"* @_ZNSt3__1lsINS_11char_traitsIcEEEERNS_13basic_ostreamIcT_EES6_PKc(%"class.std::__1::basic_ostream"* dereferenceable(160) %99, i8* getelementptr inbounds ([2 x i8], [2 x i8]* @.str.8, i32 0, i32 0))
          to label %102 unwind label %30

; <label>:102:                                    ; preds = %100
  br label %103

; <label>:103:                                    ; preds = %102, %87
  invoke void @_ZNKSt3__118basic_stringstreamIcNS_11char_traitsIcEENS_9allocatorIcEEE3strEv(%"class.std::__1::basic_string"* sret %0, %"class.std::__1::basic_stringstream"* %4)
          to label %104 unwind label %30

; <label>:104:                                    ; preds = %103
  call void @_ZNSt3__118basic_stringstreamIcNS_11char_traitsIcEENS_9allocatorIcEEED1Ev(%"class.std::__1::basic_stringstream"* %4) #13
  ret void

; <label>:105:                                    ; preds = %72, %30
  call void @_ZNSt3__118basic_stringstreamIcNS_11char_traitsIcEENS_9allocatorIcEEED1Ev(%"class.std::__1::basic_stringstream"* %4) #13
  br label %106

; <label>:106:                                    ; preds = %105
  %107 = load i8*, i8** %5, align 8
  %108 = load i32, i32* %6, align 4
  %109 = insertvalue { i8*, i32 } undef, i8* %107, 0
  %110 = insertvalue { i8*, i32 } %109, i32 %108, 1
  resume { i8*, i32 } %110
}

declare dereferenceable(160) %"class.std::__1::basic_ostream"* @_ZNSt3__113basic_ostreamIcNS_11char_traitsIcEEElsEi(%"class.std::__1::basic_ostream"*, i32) #2

; Function Attrs: noinline optnone ssp uwtable
define void @_ZN4LL2W9StoreNodeC2EPNS_7ASTNodeES2_S2_S2_S2_S2_S2_S2_(%"struct.LL2W::StoreNode"*, %"class.LL2W::ASTNode"*, %"class.LL2W::ASTNode"*, %"class.LL2W::ASTNode"*, %"class.LL2W::ASTNode"*, %"class.LL2W::ASTNode"*, %"class.LL2W::ASTNode"*, %"class.LL2W::ASTNode"*, %"class.LL2W::ASTNode"*) unnamed_addr #0 align 2 personality i8* bitcast (i32 (...)* @__gxx_personality_v0 to i8*) {
  %10 = alloca %"struct.LL2W::StoreNode"*, align 8
  %11 = alloca %"class.LL2W::ASTNode"*, align 8
  %12 = alloca %"class.LL2W::ASTNode"*, align 8
  %13 = alloca %"class.LL2W::ASTNode"*, align 8
  %14 = alloca %"class.LL2W::ASTNode"*, align 8
  %15 = alloca %"class.LL2W::ASTNode"*, align 8
  %16 = alloca %"class.LL2W::ASTNode"*, align 8
  %17 = alloca %"class.LL2W::ASTNode"*, align 8
  %18 = alloca %"class.LL2W::ASTNode"*, align 8
  %19 = alloca i8*
  %20 = alloca i32
  %21 = alloca %"class.std::__1::basic_string", align 8
  %22 = alloca %"class.std::__1::basic_string", align 8
  %23 = alloca %"class.std::__1::basic_string", align 8
  store %"struct.LL2W::StoreNode"* %0, %"struct.LL2W::StoreNode"** %10, align 8
  store %"class.LL2W::ASTNode"* %1, %"class.LL2W::ASTNode"** %11, align 8
  store %"class.LL2W::ASTNode"* %2, %"class.LL2W::ASTNode"** %12, align 8
  store %"class.LL2W::ASTNode"* %3, %"class.LL2W::ASTNode"** %13, align 8
  store %"class.LL2W::ASTNode"* %4, %"class.LL2W::ASTNode"** %14, align 8
  store %"class.LL2W::ASTNode"* %5, %"class.LL2W::ASTNode"** %15, align 8
  store %"class.LL2W::ASTNode"* %6, %"class.LL2W::ASTNode"** %16, align 8
  store %"class.LL2W::ASTNode"* %7, %"class.LL2W::ASTNode"** %17, align 8
  store %"class.LL2W::ASTNode"* %8, %"class.LL2W::ASTNode"** %18, align 8
  %24 = load %"struct.LL2W::StoreNode"*, %"struct.LL2W::StoreNode"** %10, align 8
  %25 = bitcast %"struct.LL2W::StoreNode"* %24 to %"struct.LL2W::InstructionNode"*
  call void @_ZN4LL2W15InstructionNodeC2Ev(%"struct.LL2W::InstructionNode"* %25)
  %26 = bitcast %"struct.LL2W::StoreNode"* %24 to i32 (...)***
  store i32 (...)** bitcast (i8** getelementptr inbounds ({ [6 x i8*] }, { [6 x i8*] }* @_ZTVN4LL2W9StoreNodeE, i32 0, inrange i32 0, i32 2) to i32 (...)**), i32 (...)*** %26, align 8
  %27 = getelementptr inbounds %"struct.LL2W::StoreNode", %"struct.LL2W::StoreNode"* %24, i32 0, i32 1
  store i8 0, i8* %27, align 8
  %28 = getelementptr inbounds %"struct.LL2W::StoreNode", %"struct.LL2W::StoreNode"* %24, i32 0, i32 2
  store i8 0, i8* %28, align 1
  %29 = getelementptr inbounds %"struct.LL2W::StoreNode", %"struct.LL2W::StoreNode"* %24, i32 0, i32 7
  store i32 -1, i32* %29, align 8
  %30 = getelementptr inbounds %"struct.LL2W::StoreNode", %"struct.LL2W::StoreNode"* %24, i32 0, i32 8
  store i32 -1, i32* %30, align 4
  %31 = getelementptr inbounds %"struct.LL2W::StoreNode", %"struct.LL2W::StoreNode"* %24, i32 0, i32 9
  store i32 -1, i32* %31, align 8
  %32 = getelementptr inbounds %"struct.LL2W::StoreNode", %"struct.LL2W::StoreNode"* %24, i32 0, i32 10
  store i32 -1, i32* %32, align 4
  %33 = getelementptr inbounds %"struct.LL2W::StoreNode", %"struct.LL2W::StoreNode"* %24, i32 0, i32 11
  store %"class.std::__1::basic_string"* null, %"class.std::__1::basic_string"** %33, align 8
  %34 = getelementptr inbounds %"struct.LL2W::StoreNode", %"struct.LL2W::StoreNode"* %24, i32 0, i32 12
  store i32 0, i32* %34, align 8
  %35 = getelementptr inbounds %"struct.LL2W::StoreNode", %"struct.LL2W::StoreNode"* %24, i32 0, i32 2
  store i8 0, i8* %35, align 1
  %36 = load %"class.LL2W::ASTNode"*, %"class.LL2W::ASTNode"** %11, align 8
  %37 = icmp ne %"class.LL2W::ASTNode"* %36, null
  br i1 %37, label %38, label %48

; <label>:38:                                     ; preds = %9
  %39 = getelementptr inbounds %"struct.LL2W::StoreNode", %"struct.LL2W::StoreNode"* %24, i32 0, i32 1
  store i8 1, i8* %39, align 8
  %40 = load %"class.LL2W::ASTNode"*, %"class.LL2W::ASTNode"** %11, align 8
  %41 = icmp eq %"class.LL2W::ASTNode"* %40, null
  br i1 %41, label %47, label %42

; <label>:42:                                     ; preds = %38
  %43 = bitcast %"class.LL2W::ASTNode"* %40 to void (%"class.LL2W::ASTNode"*)***
  %44 = load void (%"class.LL2W::ASTNode"*)**, void (%"class.LL2W::ASTNode"*)*** %43, align 8
  %45 = getelementptr inbounds void (%"class.LL2W::ASTNode"*)*, void (%"class.LL2W::ASTNode"*)** %44, i64 1
  %46 = load void (%"class.LL2W::ASTNode"*)*, void (%"class.LL2W::ASTNode"*)** %45, align 8
  call void %46(%"class.LL2W::ASTNode"* %40) #13
  br label %47

; <label>:47:                                     ; preds = %42, %38
  br label %48

; <label>:48:                                     ; preds = %47, %9
  %49 = load %"class.LL2W::ASTNode"*, %"class.LL2W::ASTNode"** %12, align 8
  %50 = invoke %"struct.LL2W::Type"* @_ZN4LL2W7getTypeEPKNS_7ASTNodeE(%"class.LL2W::ASTNode"* %49)
          to label %51 unwind label %119

; <label>:51:                                     ; preds = %48
  %52 = getelementptr inbounds %"struct.LL2W::StoreNode", %"struct.LL2W::StoreNode"* %24, i32 0, i32 4
  store %"struct.LL2W::Type"* %50, %"struct.LL2W::Type"** %52, align 8
  %53 = load %"class.LL2W::ASTNode"*, %"class.LL2W::ASTNode"** %12, align 8
  %54 = icmp eq %"class.LL2W::ASTNode"* %53, null
  br i1 %54, label %60, label %55

; <label>:55:                                     ; preds = %51
  %56 = bitcast %"class.LL2W::ASTNode"* %53 to void (%"class.LL2W::ASTNode"*)***
  %57 = load void (%"class.LL2W::ASTNode"*)**, void (%"class.LL2W::ASTNode"*)*** %56, align 8
  %58 = getelementptr inbounds void (%"class.LL2W::ASTNode"*)*, void (%"class.LL2W::ASTNode"*)** %57, i64 1
  %59 = load void (%"class.LL2W::ASTNode"*)*, void (%"class.LL2W::ASTNode"*)** %58, align 8
  call void %59(%"class.LL2W::ASTNode"* %53) #13
  br label %60

; <label>:60:                                     ; preds = %55, %51
  %61 = load %"class.LL2W::ASTNode"*, %"class.LL2W::ASTNode"** %13, align 8
  %62 = invoke %"struct.LL2W::Value"* @_ZN4LL2W8getValueEPKNS_7ASTNodeE(%"class.LL2W::ASTNode"* %61)
          to label %63 unwind label %119

; <label>:63:                                     ; preds = %60
  %64 = getelementptr inbounds %"struct.LL2W::StoreNode", %"struct.LL2W::StoreNode"* %24, i32 0, i32 6
  store %"struct.LL2W::Value"* %62, %"struct.LL2W::Value"** %64, align 8
  %65 = load %"class.LL2W::ASTNode"*, %"class.LL2W::ASTNode"** %13, align 8
  %66 = icmp eq %"class.LL2W::ASTNode"* %65, null
  br i1 %66, label %72, label %67

; <label>:67:                                     ; preds = %63
  %68 = bitcast %"class.LL2W::ASTNode"* %65 to void (%"class.LL2W::ASTNode"*)***
  %69 = load void (%"class.LL2W::ASTNode"*)**, void (%"class.LL2W::ASTNode"*)*** %68, align 8
  %70 = getelementptr inbounds void (%"class.LL2W::ASTNode"*)*, void (%"class.LL2W::ASTNode"*)** %69, i64 1
  %71 = load void (%"class.LL2W::ASTNode"*)*, void (%"class.LL2W::ASTNode"*)** %70, align 8
  call void %71(%"class.LL2W::ASTNode"* %65) #13
  br label %72

; <label>:72:                                     ; preds = %67, %63
  %73 = load %"class.LL2W::ASTNode"*, %"class.LL2W::ASTNode"** %14, align 8
  %74 = invoke %"struct.LL2W::Type"* @_ZN4LL2W7getTypeEPKNS_7ASTNodeE(%"class.LL2W::ASTNode"* %73)
          to label %75 unwind label %119

; <label>:75:                                     ; preds = %72
  %76 = getelementptr inbounds %"struct.LL2W::StoreNode", %"struct.LL2W::StoreNode"* %24, i32 0, i32 5
  store %"struct.LL2W::Type"* %74, %"struct.LL2W::Type"** %76, align 8
  %77 = load %"class.LL2W::ASTNode"*, %"class.LL2W::ASTNode"** %14, align 8
  %78 = icmp eq %"class.LL2W::ASTNode"* %77, null
  br i1 %78, label %84, label %79

; <label>:79:                                     ; preds = %75
  %80 = bitcast %"class.LL2W::ASTNode"* %77 to void (%"class.LL2W::ASTNode"*)***
  %81 = load void (%"class.LL2W::ASTNode"*)**, void (%"class.LL2W::ASTNode"*)*** %80, align 8
  %82 = getelementptr inbounds void (%"class.LL2W::ASTNode"*)*, void (%"class.LL2W::ASTNode"*)** %81, i64 1
  %83 = load void (%"class.LL2W::ASTNode"*)*, void (%"class.LL2W::ASTNode"*)** %82, align 8
  call void %83(%"class.LL2W::ASTNode"* %77) #13
  br label %84

; <label>:84:                                     ; preds = %79, %75
  %85 = load %"class.LL2W::ASTNode"*, %"class.LL2W::ASTNode"** %15, align 8
  %86 = getelementptr inbounds %"class.LL2W::ASTNode", %"class.LL2W::ASTNode"* %85, i32 0, i32 3
  %87 = load %"class.std::__1::basic_string"*, %"class.std::__1::basic_string"** %86, align 8
  invoke void @_ZNKSt3__112basic_stringIcNS_11char_traitsIcEENS_9allocatorIcEEE6substrEmm(%"class.std::__1::basic_string"* sret %21, %"class.std::__1::basic_string"* %87, i64 1, i64 -1)
          to label %88 unwind label %119

; <label>:88:                                     ; preds = %84
  %89 = call i8* @_ZNKSt3__112basic_stringIcNS_11char_traitsIcEENS_9allocatorIcEEE5c_strEv(%"class.std::__1::basic_string"* %21) #13
  %90 = invoke i32 @atoi(i8* %89)
          to label %91 unwind label %123

; <label>:91:                                     ; preds = %88
  %92 = getelementptr inbounds %"struct.LL2W::StoreNode", %"struct.LL2W::StoreNode"* %24, i32 0, i32 7
  store i32 %90, i32* %92, align 8
  call void @_ZNSt3__112basic_stringIcNS_11char_traitsIcEENS_9allocatorIcEEED1Ev(%"class.std::__1::basic_string"* %21) #13
  %93 = load %"class.LL2W::ASTNode"*, %"class.LL2W::ASTNode"** %15, align 8
  %94 = icmp eq %"class.LL2W::ASTNode"* %93, null
  br i1 %94, label %100, label %95

; <label>:95:                                     ; preds = %91
  %96 = bitcast %"class.LL2W::ASTNode"* %93 to void (%"class.LL2W::ASTNode"*)***
  %97 = load void (%"class.LL2W::ASTNode"*)**, void (%"class.LL2W::ASTNode"*)*** %96, align 8
  %98 = getelementptr inbounds void (%"class.LL2W::ASTNode"*)*, void (%"class.LL2W::ASTNode"*)** %97, i64 1
  %99 = load void (%"class.LL2W::ASTNode"*)*, void (%"class.LL2W::ASTNode"*)** %98, align 8
  call void %99(%"class.LL2W::ASTNode"* %93) #13
  br label %100

; <label>:100:                                    ; preds = %95, %91
  %101 = load %"class.LL2W::ASTNode"*, %"class.LL2W::ASTNode"** %16, align 8
  %102 = icmp ne %"class.LL2W::ASTNode"* %101, null
  br i1 %102, label %103, label %127

; <label>:103:                                    ; preds = %100
  %104 = load %"class.LL2W::ASTNode"*, %"class.LL2W::ASTNode"** %16, align 8
  %105 = getelementptr inbounds %"class.LL2W::ASTNode", %"class.LL2W::ASTNode"* %104, i32 0, i32 3
  %106 = load %"class.std::__1::basic_string"*, %"class.std::__1::basic_string"** %105, align 8
  %107 = call i8* @_ZNKSt3__112basic_stringIcNS_11char_traitsIcEENS_9allocatorIcEEE5c_strEv(%"class.std::__1::basic_string"* %106) #13
  %108 = invoke i32 @atoi(i8* %107)
          to label %109 unwind label %119

; <label>:109:                                    ; preds = %103
  %110 = getelementptr inbounds %"struct.LL2W::StoreNode", %"struct.LL2W::StoreNode"* %24, i32 0, i32 8
  store i32 %108, i32* %110, align 4
  %111 = load %"class.LL2W::ASTNode"*, %"class.LL2W::ASTNode"** %16, align 8
  %112 = icmp eq %"class.LL2W::ASTNode"* %111, null
  br i1 %112, label %118, label %113

; <label>:113:                                    ; preds = %109
  %114 = bitcast %"class.LL2W::ASTNode"* %111 to void (%"class.LL2W::ASTNode"*)***
  %115 = load void (%"class.LL2W::ASTNode"*)**, void (%"class.LL2W::ASTNode"*)*** %114, align 8
  %116 = getelementptr inbounds void (%"class.LL2W::ASTNode"*)*, void (%"class.LL2W::ASTNode"*)** %115, i64 1
  %117 = load void (%"class.LL2W::ASTNode"*)*, void (%"class.LL2W::ASTNode"*)** %116, align 8
  call void %117(%"class.LL2W::ASTNode"* %111) #13
  br label %118

; <label>:118:                                    ; preds = %113, %109
  br label %127

; <label>:119:                                    ; preds = %154, %130, %103, %84, %72, %60, %48
  %120 = landingpad { i8*, i32 }
          cleanup
  %121 = extractvalue { i8*, i32 } %120, 0
  store i8* %121, i8** %19, align 8
  %122 = extractvalue { i8*, i32 } %120, 1
  store i32 %122, i32* %20, align 4
  br label %176

; <label>:123:                                    ; preds = %88
  %124 = landingpad { i8*, i32 }
          cleanup
  %125 = extractvalue { i8*, i32 } %124, 0
  store i8* %125, i8** %19, align 8
  %126 = extractvalue { i8*, i32 } %124, 1
  store i32 %126, i32* %20, align 4
  call void @_ZNSt3__112basic_stringIcNS_11char_traitsIcEENS_9allocatorIcEEED1Ev(%"class.std::__1::basic_string"* %21) #13
  br label %176

; <label>:127:                                    ; preds = %118, %100
  %128 = load %"class.LL2W::ASTNode"*, %"class.LL2W::ASTNode"** %17, align 8
  %129 = icmp ne %"class.LL2W::ASTNode"* %128, null
  br i1 %129, label %130, label %151

; <label>:130:                                    ; preds = %127
  %131 = load %"class.LL2W::ASTNode"*, %"class.LL2W::ASTNode"** %17, align 8
  %132 = getelementptr inbounds %"class.LL2W::ASTNode", %"class.LL2W::ASTNode"* %131, i32 0, i32 3
  %133 = load %"class.std::__1::basic_string"*, %"class.std::__1::basic_string"** %132, align 8
  invoke void @_ZNKSt3__112basic_stringIcNS_11char_traitsIcEENS_9allocatorIcEEE6substrEmm(%"class.std::__1::basic_string"* sret %22, %"class.std::__1::basic_string"* %133, i64 1, i64 -1)
          to label %134 unwind label %119

; <label>:134:                                    ; preds = %130
  %135 = call i8* @_ZNKSt3__112basic_stringIcNS_11char_traitsIcEENS_9allocatorIcEEE5c_strEv(%"class.std::__1::basic_string"* %22) #13
  %136 = invoke i32 @atoi(i8* %135)
          to label %137 unwind label %147

; <label>:137:                                    ; preds = %134
  %138 = getelementptr inbounds %"struct.LL2W::StoreNode", %"struct.LL2W::StoreNode"* %24, i32 0, i32 9
  store i32 %136, i32* %138, align 8
  call void @_ZNSt3__112basic_stringIcNS_11char_traitsIcEENS_9allocatorIcEEED1Ev(%"class.std::__1::basic_string"* %22) #13
  %139 = load %"class.LL2W::ASTNode"*, %"class.LL2W::ASTNode"** %17, align 8
  %140 = icmp eq %"class.LL2W::ASTNode"* %139, null
  br i1 %140, label %146, label %141

; <label>:141:                                    ; preds = %137
  %142 = bitcast %"class.LL2W::ASTNode"* %139 to void (%"class.LL2W::ASTNode"*)***
  %143 = load void (%"class.LL2W::ASTNode"*)**, void (%"class.LL2W::ASTNode"*)*** %142, align 8
  %144 = getelementptr inbounds void (%"class.LL2W::ASTNode"*)*, void (%"class.LL2W::ASTNode"*)** %143, i64 1
  %145 = load void (%"class.LL2W::ASTNode"*)*, void (%"class.LL2W::ASTNode"*)** %144, align 8
  call void %145(%"class.LL2W::ASTNode"* %139) #13
  br label %146

; <label>:146:                                    ; preds = %141, %137
  br label %151

; <label>:147:                                    ; preds = %134
  %148 = landingpad { i8*, i32 }
          cleanup
  %149 = extractvalue { i8*, i32 } %148, 0
  store i8* %149, i8** %19, align 8
  %150 = extractvalue { i8*, i32 } %148, 1
  store i32 %150, i32* %20, align 4
  call void @_ZNSt3__112basic_stringIcNS_11char_traitsIcEENS_9allocatorIcEEED1Ev(%"class.std::__1::basic_string"* %22) #13
  br label %176

; <label>:151:                                    ; preds = %146, %127
  %152 = load %"class.LL2W::ASTNode"*, %"class.LL2W::ASTNode"** %18, align 8
  %153 = icmp ne %"class.LL2W::ASTNode"* %152, null
  br i1 %153, label %154, label %175

; <label>:154:                                    ; preds = %151
  %155 = load %"class.LL2W::ASTNode"*, %"class.LL2W::ASTNode"** %18, align 8
  %156 = getelementptr inbounds %"class.LL2W::ASTNode", %"class.LL2W::ASTNode"* %155, i32 0, i32 3
  %157 = load %"class.std::__1::basic_string"*, %"class.std::__1::basic_string"** %156, align 8
  invoke void @_ZNKSt3__112basic_stringIcNS_11char_traitsIcEENS_9allocatorIcEEE6substrEmm(%"class.std::__1::basic_string"* sret %23, %"class.std::__1::basic_string"* %157, i64 1, i64 -1)
          to label %158 unwind label %119

; <label>:158:                                    ; preds = %154
  %159 = call i8* @_ZNKSt3__112basic_stringIcNS_11char_traitsIcEENS_9allocatorIcEEE5c_strEv(%"class.std::__1::basic_string"* %23) #13
  %160 = invoke i32 @atoi(i8* %159)
          to label %161 unwind label %171

; <label>:161:                                    ; preds = %158
  %162 = getelementptr inbounds %"struct.LL2W::StoreNode", %"struct.LL2W::StoreNode"* %24, i32 0, i32 10
  store i32 %160, i32* %162, align 4
  call void @_ZNSt3__112basic_stringIcNS_11char_traitsIcEENS_9allocatorIcEEED1Ev(%"class.std::__1::basic_string"* %23) #13
  %163 = load %"class.LL2W::ASTNode"*, %"class.LL2W::ASTNode"** %18, align 8
  %164 = icmp eq %"class.LL2W::ASTNode"* %163, null
  br i1 %164, label %170, label %165

; <label>:165:                                    ; preds = %161
  %166 = bitcast %"class.LL2W::ASTNode"* %163 to void (%"class.LL2W::ASTNode"*)***
  %167 = load void (%"class.LL2W::ASTNode"*)**, void (%"class.LL2W::ASTNode"*)*** %166, align 8
  %168 = getelementptr inbounds void (%"class.LL2W::ASTNode"*)*, void (%"class.LL2W::ASTNode"*)** %167, i64 1
  %169 = load void (%"class.LL2W::ASTNode"*)*, void (%"class.LL2W::ASTNode"*)** %168, align 8
  call void %169(%"class.LL2W::ASTNode"* %163) #13
  br label %170

; <label>:170:                                    ; preds = %165, %161
  br label %175

; <label>:171:                                    ; preds = %158
  %172 = landingpad { i8*, i32 }
          cleanup
  %173 = extractvalue { i8*, i32 } %172, 0
  store i8* %173, i8** %19, align 8
  %174 = extractvalue { i8*, i32 } %172, 1
  store i32 %174, i32* %20, align 4
  call void @_ZNSt3__112basic_stringIcNS_11char_traitsIcEENS_9allocatorIcEEED1Ev(%"class.std::__1::basic_string"* %23) #13
  br label %176

; <label>:175:                                    ; preds = %170, %151
  ret void

; <label>:176:                                    ; preds = %171, %147, %123, %119
  %177 = bitcast %"struct.LL2W::StoreNode"* %24 to %"struct.LL2W::InstructionNode"*
  call void @_ZN4LL2W15InstructionNodeD2Ev(%"struct.LL2W::InstructionNode"* %177) #13
  br label %178

; <label>:178:                                    ; preds = %176
  %179 = load i8*, i8** %19, align 8
  %180 = load i32, i32* %20, align 4
  %181 = insertvalue { i8*, i32 } undef, i8* %179, 0
  %182 = insertvalue { i8*, i32 } %181, i32 %180, 1
  resume { i8*, i32 } %182
}

; Function Attrs: noinline optnone ssp uwtable
define linkonce_odr hidden void @_ZNKSt3__112basic_stringIcNS_11char_traitsIcEENS_9allocatorIcEEE6substrEmm(%"class.std::__1::basic_string"* noalias sret, %"class.std::__1::basic_string"*, i64, i64) #0 align 2 {
  %5 = alloca %"class.std::__1::basic_string"*, align 8
  %6 = alloca i64, align 8
  %7 = alloca i64, align 8
  store %"class.std::__1::basic_string"* %1, %"class.std::__1::basic_string"** %5, align 8
  store i64 %2, i64* %6, align 8
  store i64 %3, i64* %7, align 8
  %8 = load %"class.std::__1::basic_string"*, %"class.std::__1::basic_string"** %5, align 8
  %9 = load i64, i64* %6, align 8
  %10 = load i64, i64* %7, align 8
  %11 = call dereferenceable(1) %"class.std::__1::allocator"* @_ZNKSt3__112basic_stringIcNS_11char_traitsIcEENS_9allocatorIcEEE7__allocEv(%"class.std::__1::basic_string"* %8) #13
  call void @_ZNSt3__112basic_stringIcNS_11char_traitsIcEENS_9allocatorIcEEEC1ERKS5_mmRKS4_(%"class.std::__1::basic_string"* %0, %"class.std::__1::basic_string"* dereferenceable(24) %8, i64 %9, i64 %10, %"class.std::__1::allocator"* dereferenceable(1) %11)
  ret void
}

; Function Attrs: noinline optnone ssp uwtable
define void @_ZN4LL2W9StoreNodeC1EPNS_7ASTNodeES2_S2_S2_S2_S2_S2_S2_(%"struct.LL2W::StoreNode"*, %"class.LL2W::ASTNode"*, %"class.LL2W::ASTNode"*, %"class.LL2W::ASTNode"*, %"class.LL2W::ASTNode"*, %"class.LL2W::ASTNode"*, %"class.LL2W::ASTNode"*, %"class.LL2W::ASTNode"*, %"class.LL2W::ASTNode"*) unnamed_addr #0 align 2 {
  %10 = alloca %"struct.LL2W::StoreNode"*, align 8
  %11 = alloca %"class.LL2W::ASTNode"*, align 8
  %12 = alloca %"class.LL2W::ASTNode"*, align 8
  %13 = alloca %"class.LL2W::ASTNode"*, align 8
  %14 = alloca %"class.LL2W::ASTNode"*, align 8
  %15 = alloca %"class.LL2W::ASTNode"*, align 8
  %16 = alloca %"class.LL2W::ASTNode"*, align 8
  %17 = alloca %"class.LL2W::ASTNode"*, align 8
  %18 = alloca %"class.LL2W::ASTNode"*, align 8
  store %"struct.LL2W::StoreNode"* %0, %"struct.LL2W::StoreNode"** %10, align 8
  store %"class.LL2W::ASTNode"* %1, %"class.LL2W::ASTNode"** %11, align 8
  store %"class.LL2W::ASTNode"* %2, %"class.LL2W::ASTNode"** %12, align 8
  store %"class.LL2W::ASTNode"* %3, %"class.LL2W::ASTNode"** %13, align 8
  store %"class.LL2W::ASTNode"* %4, %"class.LL2W::ASTNode"** %14, align 8
  store %"class.LL2W::ASTNode"* %5, %"class.LL2W::ASTNode"** %15, align 8
  store %"class.LL2W::ASTNode"* %6, %"class.LL2W::ASTNode"** %16, align 8
  store %"class.LL2W::ASTNode"* %7, %"class.LL2W::ASTNode"** %17, align 8
  store %"class.LL2W::ASTNode"* %8, %"class.LL2W::ASTNode"** %18, align 8
  %19 = load %"struct.LL2W::StoreNode"*, %"struct.LL2W::StoreNode"** %10, align 8
  %20 = load %"class.LL2W::ASTNode"*, %"class.LL2W::ASTNode"** %11, align 8
  %21 = load %"class.LL2W::ASTNode"*, %"class.LL2W::ASTNode"** %12, align 8
  %22 = load %"class.LL2W::ASTNode"*, %"class.LL2W::ASTNode"** %13, align 8
  %23 = load %"class.LL2W::ASTNode"*, %"class.LL2W::ASTNode"** %14, align 8
  %24 = load %"class.LL2W::ASTNode"*, %"class.LL2W::ASTNode"** %15, align 8
  %25 = load %"class.LL2W::ASTNode"*, %"class.LL2W::ASTNode"** %16, align 8
  %26 = load %"class.LL2W::ASTNode"*, %"class.LL2W::ASTNode"** %17, align 8
  %27 = load %"class.LL2W::ASTNode"*, %"class.LL2W::ASTNode"** %18, align 8
  call void @_ZN4LL2W9StoreNodeC2EPNS_7ASTNodeES2_S2_S2_S2_S2_S2_S2_(%"struct.LL2W::StoreNode"* %19, %"class.LL2W::ASTNode"* %20, %"class.LL2W::ASTNode"* %21, %"class.LL2W::ASTNode"* %22, %"class.LL2W::ASTNode"* %23, %"class.LL2W::ASTNode"* %24, %"class.LL2W::ASTNode"* %25, %"class.LL2W::ASTNode"* %26, %"class.LL2W::ASTNode"* %27)
  ret void
}

; Function Attrs: noinline optnone ssp uwtable
define void @_ZN4LL2W9StoreNodeC2EPNS_7ASTNodeES2_S2_S2_S2_S2_S2_S2_S2_(%"struct.LL2W::StoreNode"*, %"class.LL2W::ASTNode"*, %"class.LL2W::ASTNode"*, %"class.LL2W::ASTNode"*, %"class.LL2W::ASTNode"*, %"class.LL2W::ASTNode"*, %"class.LL2W::ASTNode"*, %"class.LL2W::ASTNode"*, %"class.LL2W::ASTNode"*, %"class.LL2W::ASTNode"*) unnamed_addr #0 align 2 personality i8* bitcast (i32 (...)* @__gxx_personality_v0 to i8*) {
  %11 = alloca %"struct.LL2W::StoreNode"*, align 8
  %12 = alloca %"class.LL2W::ASTNode"*, align 8
  %13 = alloca %"class.LL2W::ASTNode"*, align 8
  %14 = alloca %"class.LL2W::ASTNode"*, align 8
  %15 = alloca %"class.LL2W::ASTNode"*, align 8
  %16 = alloca %"class.LL2W::ASTNode"*, align 8
  %17 = alloca %"class.LL2W::ASTNode"*, align 8
  %18 = alloca %"class.LL2W::ASTNode"*, align 8
  %19 = alloca %"class.LL2W::ASTNode"*, align 8
  %20 = alloca %"class.LL2W::ASTNode"*, align 8
  %21 = alloca i8*
  %22 = alloca i32
  %23 = alloca %"class.std::__1::basic_string", align 8
  %24 = alloca %"class.std::__1::basic_string", align 8
  %25 = alloca %"class.std::__1::basic_string"*, align 8
  %26 = alloca %"class.std::__1::unordered_map.47"*, align 8
  %27 = alloca %"class.std::__1::__hash_map_iterator.76", align 8
  %28 = alloca %"class.std::__1::__hash_map_iterator.76", align 8
  %29 = alloca %"struct.std::__1::pair.78"*, align 8
  %30 = alloca %"struct.std::__1::pair.78", align 8
  %31 = alloca i32, align 4
  %32 = alloca %"class.std::__1::basic_string", align 8
  store %"struct.LL2W::StoreNode"* %0, %"struct.LL2W::StoreNode"** %11, align 8
  store %"class.LL2W::ASTNode"* %1, %"class.LL2W::ASTNode"** %12, align 8
  store %"class.LL2W::ASTNode"* %2, %"class.LL2W::ASTNode"** %13, align 8
  store %"class.LL2W::ASTNode"* %3, %"class.LL2W::ASTNode"** %14, align 8
  store %"class.LL2W::ASTNode"* %4, %"class.LL2W::ASTNode"** %15, align 8
  store %"class.LL2W::ASTNode"* %5, %"class.LL2W::ASTNode"** %16, align 8
  store %"class.LL2W::ASTNode"* %6, %"class.LL2W::ASTNode"** %17, align 8
  store %"class.LL2W::ASTNode"* %7, %"class.LL2W::ASTNode"** %18, align 8
  store %"class.LL2W::ASTNode"* %8, %"class.LL2W::ASTNode"** %19, align 8
  store %"class.LL2W::ASTNode"* %9, %"class.LL2W::ASTNode"** %20, align 8
  %33 = load %"struct.LL2W::StoreNode"*, %"struct.LL2W::StoreNode"** %11, align 8
  %34 = bitcast %"struct.LL2W::StoreNode"* %33 to %"struct.LL2W::InstructionNode"*
  call void @_ZN4LL2W15InstructionNodeC2Ev(%"struct.LL2W::InstructionNode"* %34)
  %35 = bitcast %"struct.LL2W::StoreNode"* %33 to i32 (...)***
  store i32 (...)** bitcast (i8** getelementptr inbounds ({ [6 x i8*] }, { [6 x i8*] }* @_ZTVN4LL2W9StoreNodeE, i32 0, inrange i32 0, i32 2) to i32 (...)**), i32 (...)*** %35, align 8
  %36 = getelementptr inbounds %"struct.LL2W::StoreNode", %"struct.LL2W::StoreNode"* %33, i32 0, i32 1
  store i8 0, i8* %36, align 8
  %37 = getelementptr inbounds %"struct.LL2W::StoreNode", %"struct.LL2W::StoreNode"* %33, i32 0, i32 2
  store i8 0, i8* %37, align 1
  %38 = getelementptr inbounds %"struct.LL2W::StoreNode", %"struct.LL2W::StoreNode"* %33, i32 0, i32 7
  store i32 -1, i32* %38, align 8
  %39 = getelementptr inbounds %"struct.LL2W::StoreNode", %"struct.LL2W::StoreNode"* %33, i32 0, i32 8
  store i32 -1, i32* %39, align 4
  %40 = getelementptr inbounds %"struct.LL2W::StoreNode", %"struct.LL2W::StoreNode"* %33, i32 0, i32 9
  store i32 -1, i32* %40, align 8
  %41 = getelementptr inbounds %"struct.LL2W::StoreNode", %"struct.LL2W::StoreNode"* %33, i32 0, i32 10
  store i32 -1, i32* %41, align 4
  %42 = getelementptr inbounds %"struct.LL2W::StoreNode", %"struct.LL2W::StoreNode"* %33, i32 0, i32 11
  store %"class.std::__1::basic_string"* null, %"class.std::__1::basic_string"** %42, align 8
  %43 = getelementptr inbounds %"struct.LL2W::StoreNode", %"struct.LL2W::StoreNode"* %33, i32 0, i32 12
  store i32 0, i32* %43, align 8
  %44 = getelementptr inbounds %"struct.LL2W::StoreNode", %"struct.LL2W::StoreNode"* %33, i32 0, i32 2
  store i8 1, i8* %44, align 1
  %45 = load %"class.LL2W::ASTNode"*, %"class.LL2W::ASTNode"** %12, align 8
  %46 = icmp ne %"class.LL2W::ASTNode"* %45, null
  br i1 %46, label %47, label %57

; <label>:47:                                     ; preds = %10
  %48 = getelementptr inbounds %"struct.LL2W::StoreNode", %"struct.LL2W::StoreNode"* %33, i32 0, i32 1
  store i8 1, i8* %48, align 8
  %49 = load %"class.LL2W::ASTNode"*, %"class.LL2W::ASTNode"** %12, align 8
  %50 = icmp eq %"class.LL2W::ASTNode"* %49, null
  br i1 %50, label %56, label %51

; <label>:51:                                     ; preds = %47
  %52 = bitcast %"class.LL2W::ASTNode"* %49 to void (%"class.LL2W::ASTNode"*)***
  %53 = load void (%"class.LL2W::ASTNode"*)**, void (%"class.LL2W::ASTNode"*)*** %52, align 8
  %54 = getelementptr inbounds void (%"class.LL2W::ASTNode"*)*, void (%"class.LL2W::ASTNode"*)** %53, i64 1
  %55 = load void (%"class.LL2W::ASTNode"*)*, void (%"class.LL2W::ASTNode"*)** %54, align 8
  call void %55(%"class.LL2W::ASTNode"* %49) #13
  br label %56

; <label>:56:                                     ; preds = %51, %47
  br label %57

; <label>:57:                                     ; preds = %56, %10
  %58 = load %"class.LL2W::ASTNode"*, %"class.LL2W::ASTNode"** %13, align 8
  %59 = invoke %"struct.LL2W::Type"* @_ZN4LL2W7getTypeEPKNS_7ASTNodeE(%"class.LL2W::ASTNode"* %58)
          to label %60 unwind label %126

; <label>:60:                                     ; preds = %57
  %61 = getelementptr inbounds %"struct.LL2W::StoreNode", %"struct.LL2W::StoreNode"* %33, i32 0, i32 4
  store %"struct.LL2W::Type"* %59, %"struct.LL2W::Type"** %61, align 8
  %62 = load %"class.LL2W::ASTNode"*, %"class.LL2W::ASTNode"** %13, align 8
  %63 = icmp eq %"class.LL2W::ASTNode"* %62, null
  br i1 %63, label %69, label %64

; <label>:64:                                     ; preds = %60
  %65 = bitcast %"class.LL2W::ASTNode"* %62 to void (%"class.LL2W::ASTNode"*)***
  %66 = load void (%"class.LL2W::ASTNode"*)**, void (%"class.LL2W::ASTNode"*)*** %65, align 8
  %67 = getelementptr inbounds void (%"class.LL2W::ASTNode"*)*, void (%"class.LL2W::ASTNode"*)** %66, i64 1
  %68 = load void (%"class.LL2W::ASTNode"*)*, void (%"class.LL2W::ASTNode"*)** %67, align 8
  call void %68(%"class.LL2W::ASTNode"* %62) #13
  br label %69

; <label>:69:                                     ; preds = %64, %60
  %70 = load %"class.LL2W::ASTNode"*, %"class.LL2W::ASTNode"** %14, align 8
  %71 = invoke %"struct.LL2W::Value"* @_ZN4LL2W8getValueEPKNS_7ASTNodeE(%"class.LL2W::ASTNode"* %70)
          to label %72 unwind label %126

; <label>:72:                                     ; preds = %69
  %73 = getelementptr inbounds %"struct.LL2W::StoreNode", %"struct.LL2W::StoreNode"* %33, i32 0, i32 6
  store %"struct.LL2W::Value"* %71, %"struct.LL2W::Value"** %73, align 8
  %74 = load %"class.LL2W::ASTNode"*, %"class.LL2W::ASTNode"** %14, align 8
  %75 = icmp eq %"class.LL2W::ASTNode"* %74, null
  br i1 %75, label %81, label %76

; <label>:76:                                     ; preds = %72
  %77 = bitcast %"class.LL2W::ASTNode"* %74 to void (%"class.LL2W::ASTNode"*)***
  %78 = load void (%"class.LL2W::ASTNode"*)**, void (%"class.LL2W::ASTNode"*)*** %77, align 8
  %79 = getelementptr inbounds void (%"class.LL2W::ASTNode"*)*, void (%"class.LL2W::ASTNode"*)** %78, i64 1
  %80 = load void (%"class.LL2W::ASTNode"*)*, void (%"class.LL2W::ASTNode"*)** %79, align 8
  call void %80(%"class.LL2W::ASTNode"* %74) #13
  br label %81

; <label>:81:                                     ; preds = %76, %72
  %82 = load %"class.LL2W::ASTNode"*, %"class.LL2W::ASTNode"** %15, align 8
  %83 = invoke %"struct.LL2W::Type"* @_ZN4LL2W7getTypeEPKNS_7ASTNodeE(%"class.LL2W::ASTNode"* %82)
          to label %84 unwind label %126

; <label>:84:                                     ; preds = %81
  %85 = getelementptr inbounds %"struct.LL2W::StoreNode", %"struct.LL2W::StoreNode"* %33, i32 0, i32 5
  store %"struct.LL2W::Type"* %83, %"struct.LL2W::Type"** %85, align 8
  %86 = load %"class.LL2W::ASTNode"*, %"class.LL2W::ASTNode"** %15, align 8
  %87 = icmp eq %"class.LL2W::ASTNode"* %86, null
  br i1 %87, label %93, label %88

; <label>:88:                                     ; preds = %84
  %89 = bitcast %"class.LL2W::ASTNode"* %86 to void (%"class.LL2W::ASTNode"*)***
  %90 = load void (%"class.LL2W::ASTNode"*)**, void (%"class.LL2W::ASTNode"*)*** %89, align 8
  %91 = getelementptr inbounds void (%"class.LL2W::ASTNode"*)*, void (%"class.LL2W::ASTNode"*)** %90, i64 1
  %92 = load void (%"class.LL2W::ASTNode"*)*, void (%"class.LL2W::ASTNode"*)** %91, align 8
  call void %92(%"class.LL2W::ASTNode"* %86) #13
  br label %93

; <label>:93:                                     ; preds = %88, %84
  %94 = load %"class.LL2W::ASTNode"*, %"class.LL2W::ASTNode"** %16, align 8
  %95 = getelementptr inbounds %"class.LL2W::ASTNode", %"class.LL2W::ASTNode"* %94, i32 0, i32 3
  %96 = load %"class.std::__1::basic_string"*, %"class.std::__1::basic_string"** %95, align 8
  invoke void @_ZNKSt3__112basic_stringIcNS_11char_traitsIcEENS_9allocatorIcEEE6substrEmm(%"class.std::__1::basic_string"* sret %23, %"class.std::__1::basic_string"* %96, i64 1, i64 -1)
          to label %97 unwind label %126

; <label>:97:                                     ; preds = %93
  %98 = call i8* @_ZNKSt3__112basic_stringIcNS_11char_traitsIcEENS_9allocatorIcEEE5c_strEv(%"class.std::__1::basic_string"* %23) #13
  %99 = invoke i32 @atoi(i8* %98)
          to label %100 unwind label %130

; <label>:100:                                    ; preds = %97
  %101 = getelementptr inbounds %"struct.LL2W::StoreNode", %"struct.LL2W::StoreNode"* %33, i32 0, i32 7
  store i32 %99, i32* %101, align 8
  call void @_ZNSt3__112basic_stringIcNS_11char_traitsIcEENS_9allocatorIcEEED1Ev(%"class.std::__1::basic_string"* %23) #13
  %102 = load %"class.LL2W::ASTNode"*, %"class.LL2W::ASTNode"** %16, align 8
  %103 = icmp eq %"class.LL2W::ASTNode"* %102, null
  br i1 %103, label %109, label %104

; <label>:104:                                    ; preds = %100
  %105 = bitcast %"class.LL2W::ASTNode"* %102 to void (%"class.LL2W::ASTNode"*)***
  %106 = load void (%"class.LL2W::ASTNode"*)**, void (%"class.LL2W::ASTNode"*)*** %105, align 8
  %107 = getelementptr inbounds void (%"class.LL2W::ASTNode"*)*, void (%"class.LL2W::ASTNode"*)** %106, i64 1
  %108 = load void (%"class.LL2W::ASTNode"*)*, void (%"class.LL2W::ASTNode"*)** %107, align 8
  call void %108(%"class.LL2W::ASTNode"* %102) #13
  br label %109

; <label>:109:                                    ; preds = %104, %100
  %110 = load %"class.LL2W::ASTNode"*, %"class.LL2W::ASTNode"** %17, align 8
  %111 = icmp ne %"class.LL2W::ASTNode"* %110, null
  br i1 %111, label %112, label %138

; <label>:112:                                    ; preds = %109
  %113 = load %"class.LL2W::ASTNode"*, %"class.LL2W::ASTNode"** %17, align 8
  invoke void @_ZNK4LL2W7ASTNode11extractNameEv(%"class.std::__1::basic_string"* sret %24, %"class.LL2W::ASTNode"* %113)
          to label %114 unwind label %126

; <label>:114:                                    ; preds = %112
  %115 = invoke %"class.std::__1::basic_string"* @_ZN4LL2W9StringSet6internERKNSt3__112basic_stringIcNS1_11char_traitsIcEENS1_9allocatorIcEEEE(%"class.std::__1::basic_string"* dereferenceable(24) %24)
          to label %116 unwind label %134

; <label>:116:                                    ; preds = %114
  %117 = getelementptr inbounds %"struct.LL2W::StoreNode", %"struct.LL2W::StoreNode"* %33, i32 0, i32 11
  store %"class.std::__1::basic_string"* %115, %"class.std::__1::basic_string"** %117, align 8
  call void @_ZNSt3__112basic_stringIcNS_11char_traitsIcEENS_9allocatorIcEEED1Ev(%"class.std::__1::basic_string"* %24) #13
  %118 = load %"class.LL2W::ASTNode"*, %"class.LL2W::ASTNode"** %17, align 8
  %119 = icmp eq %"class.LL2W::ASTNode"* %118, null
  br i1 %119, label %125, label %120

; <label>:120:                                    ; preds = %116
  %121 = bitcast %"class.LL2W::ASTNode"* %118 to void (%"class.LL2W::ASTNode"*)***
  %122 = load void (%"class.LL2W::ASTNode"*)**, void (%"class.LL2W::ASTNode"*)*** %121, align 8
  %123 = getelementptr inbounds void (%"class.LL2W::ASTNode"*)*, void (%"class.LL2W::ASTNode"*)** %122, i64 1
  %124 = load void (%"class.LL2W::ASTNode"*)*, void (%"class.LL2W::ASTNode"*)** %123, align 8
  call void %124(%"class.LL2W::ASTNode"* %118) #13
  br label %125

; <label>:125:                                    ; preds = %120, %116
  br label %138

; <label>:126:                                    ; preds = %197, %179, %168, %153, %151, %148, %112, %93, %81, %69, %57
  %127 = landingpad { i8*, i32 }
          cleanup
  %128 = extractvalue { i8*, i32 } %127, 0
  store i8* %128, i8** %21, align 8
  %129 = extractvalue { i8*, i32 } %127, 1
  store i32 %129, i32* %22, align 4
  br label %219

; <label>:130:                                    ; preds = %97
  %131 = landingpad { i8*, i32 }
          cleanup
  %132 = extractvalue { i8*, i32 } %131, 0
  store i8* %132, i8** %21, align 8
  %133 = extractvalue { i8*, i32 } %131, 1
  store i32 %133, i32* %22, align 4
  call void @_ZNSt3__112basic_stringIcNS_11char_traitsIcEENS_9allocatorIcEEED1Ev(%"class.std::__1::basic_string"* %23) #13
  br label %219

; <label>:134:                                    ; preds = %114
  %135 = landingpad { i8*, i32 }
          cleanup
  %136 = extractvalue { i8*, i32 } %135, 0
  store i8* %136, i8** %21, align 8
  %137 = extractvalue { i8*, i32 } %135, 1
  store i32 %137, i32* %22, align 4
  call void @_ZNSt3__112basic_stringIcNS_11char_traitsIcEENS_9allocatorIcEEED1Ev(%"class.std::__1::basic_string"* %24) #13
  br label %219

; <label>:138:                                    ; preds = %125, %109
  %139 = load %"class.LL2W::ASTNode"*, %"class.LL2W::ASTNode"** %18, align 8
  %140 = getelementptr inbounds %"class.LL2W::ASTNode", %"class.LL2W::ASTNode"* %139, i32 0, i32 3
  %141 = load %"class.std::__1::basic_string"*, %"class.std::__1::basic_string"** %140, align 8
  store %"class.std::__1::basic_string"* %141, %"class.std::__1::basic_string"** %25, align 8
  store %"class.std::__1::unordered_map.47"* @_ZN4LL2W12ordering_mapE, %"class.std::__1::unordered_map.47"** %26, align 8
  %142 = call %"struct.std::__1::__hash_node_base.52"* @_ZNSt3__113unordered_mapIN4LL2W8OrderingENS_12basic_stringIcNS_11char_traitsIcEENS_9allocatorIcEEEENS_4hashIS2_EENS_8equal_toIS2_EENS6_INS_4pairIKS2_S8_EEEEE5beginEv(%"class.std::__1::unordered_map.47"* @_ZN4LL2W12ordering_mapE) #13
  %143 = getelementptr inbounds %"class.std::__1::__hash_map_iterator.76", %"class.std::__1::__hash_map_iterator.76"* %27, i32 0, i32 0
  %144 = getelementptr inbounds %"class.std::__1::__hash_iterator.77", %"class.std::__1::__hash_iterator.77"* %143, i32 0, i32 0
  store %"struct.std::__1::__hash_node_base.52"* %142, %"struct.std::__1::__hash_node_base.52"** %144, align 8
  %145 = call %"struct.std::__1::__hash_node_base.52"* @_ZNSt3__113unordered_mapIN4LL2W8OrderingENS_12basic_stringIcNS_11char_traitsIcEENS_9allocatorIcEEEENS_4hashIS2_EENS_8equal_toIS2_EENS6_INS_4pairIKS2_S8_EEEEE3endEv(%"class.std::__1::unordered_map.47"* @_ZN4LL2W12ordering_mapE) #13
  %146 = getelementptr inbounds %"class.std::__1::__hash_map_iterator.76", %"class.std::__1::__hash_map_iterator.76"* %28, i32 0, i32 0
  %147 = getelementptr inbounds %"class.std::__1::__hash_iterator.77", %"class.std::__1::__hash_iterator.77"* %146, i32 0, i32 0
  store %"struct.std::__1::__hash_node_base.52"* %145, %"struct.std::__1::__hash_node_base.52"** %147, align 8
  br label %148

; <label>:148:                                    ; preds = %170, %138
  %149 = invoke zeroext i1 @_ZNSt3__1neERKNS_19__hash_map_iteratorINS_15__hash_iteratorIPNS_11__hash_nodeINS_17__hash_value_typeIN4LL2W8OrderingENS_12basic_stringIcNS_11char_traitsIcEENS_9allocatorIcEEEEEEPvEEEEEESJ_(%"class.std::__1::__hash_map_iterator.76"* dereferenceable(8) %27, %"class.std::__1::__hash_map_iterator.76"* dereferenceable(8) %28)
          to label %150 unwind label %126

; <label>:150:                                    ; preds = %148
  br i1 %149, label %151, label %171

; <label>:151:                                    ; preds = %150
  %152 = invoke dereferenceable(32) %"struct.std::__1::pair.79"* @_ZNKSt3__119__hash_map_iteratorINS_15__hash_iteratorIPNS_11__hash_nodeINS_17__hash_value_typeIN4LL2W8OrderingENS_12basic_stringIcNS_11char_traitsIcEENS_9allocatorIcEEEEEEPvEEEEEdeEv(%"class.std::__1::__hash_map_iterator.76"* %27)
          to label %153 unwind label %126

; <label>:153:                                    ; preds = %151
  invoke void @_ZNSt3__14pairIN4LL2W8OrderingENS_12basic_stringIcNS_11char_traitsIcEENS_9allocatorIcEEEEEC1IRNS0_IKS2_S8_EELb0EEEOT_(%"struct.std::__1::pair.78"* %30, %"struct.std::__1::pair.79"* dereferenceable(32) %152)
          to label %154 unwind label %126

; <label>:154:                                    ; preds = %153
  store %"struct.std::__1::pair.78"* %30, %"struct.std::__1::pair.78"** %29, align 8
  %155 = load %"class.std::__1::basic_string"*, %"class.std::__1::basic_string"** %25, align 8
  %156 = load %"struct.std::__1::pair.78"*, %"struct.std::__1::pair.78"** %29, align 8
  %157 = getelementptr inbounds %"struct.std::__1::pair.78", %"struct.std::__1::pair.78"* %156, i32 0, i32 1
  %158 = call zeroext i1 @_ZNSt3__1eqINS_9allocatorIcEEEEbRKNS_12basic_stringIcNS_11char_traitsIcEET_EES9_(%"class.std::__1::basic_string"* dereferenceable(24) %155, %"class.std::__1::basic_string"* dereferenceable(24) %157) #13
  br i1 %158, label %159, label %164

; <label>:159:                                    ; preds = %154
  %160 = load %"struct.std::__1::pair.78"*, %"struct.std::__1::pair.78"** %29, align 8
  %161 = getelementptr inbounds %"struct.std::__1::pair.78", %"struct.std::__1::pair.78"* %160, i32 0, i32 0
  %162 = load i32, i32* %161, align 8
  %163 = getelementptr inbounds %"struct.LL2W::StoreNode", %"struct.LL2W::StoreNode"* %33, i32 0, i32 12
  store i32 %162, i32* %163, align 8
  store i32 2, i32* %31, align 4
  br label %165

; <label>:164:                                    ; preds = %154
  store i32 0, i32* %31, align 4
  br label %165

; <label>:165:                                    ; preds = %164, %159
  call void @_ZNSt3__14pairIN4LL2W8OrderingENS_12basic_stringIcNS_11char_traitsIcEENS_9allocatorIcEEEEED1Ev(%"struct.std::__1::pair.78"* %30) #13
  %166 = load i32, i32* %31, align 4
  switch i32 %166, label %226 [
    i32 0, label %167
    i32 2, label %171
  ]

; <label>:167:                                    ; preds = %165
  br label %168

; <label>:168:                                    ; preds = %167
  %169 = invoke dereferenceable(8) %"class.std::__1::__hash_map_iterator.76"* @_ZNSt3__119__hash_map_iteratorINS_15__hash_iteratorIPNS_11__hash_nodeINS_17__hash_value_typeIN4LL2W8OrderingENS_12basic_stringIcNS_11char_traitsIcEENS_9allocatorIcEEEEEEPvEEEEEppEv(%"class.std::__1::__hash_map_iterator.76"* %27)
          to label %170 unwind label %126

; <label>:170:                                    ; preds = %168
  br label %148

; <label>:171:                                    ; preds = %165, %150
  %172 = load %"class.LL2W::ASTNode"*, %"class.LL2W::ASTNode"** %18, align 8
  %173 = icmp eq %"class.LL2W::ASTNode"* %172, null
  br i1 %173, label %179, label %174

; <label>:174:                                    ; preds = %171
  %175 = bitcast %"class.LL2W::ASTNode"* %172 to void (%"class.LL2W::ASTNode"*)***
  %176 = load void (%"class.LL2W::ASTNode"*)**, void (%"class.LL2W::ASTNode"*)*** %175, align 8
  %177 = getelementptr inbounds void (%"class.LL2W::ASTNode"*)*, void (%"class.LL2W::ASTNode"*)** %176, i64 1
  %178 = load void (%"class.LL2W::ASTNode"*)*, void (%"class.LL2W::ASTNode"*)** %177, align 8
  call void %178(%"class.LL2W::ASTNode"* %172) #13
  br label %179

; <label>:179:                                    ; preds = %174, %171
  %180 = load %"class.LL2W::ASTNode"*, %"class.LL2W::ASTNode"** %19, align 8
  %181 = getelementptr inbounds %"class.LL2W::ASTNode", %"class.LL2W::ASTNode"* %180, i32 0, i32 3
  %182 = load %"class.std::__1::basic_string"*, %"class.std::__1::basic_string"** %181, align 8
  %183 = call i8* @_ZNKSt3__112basic_stringIcNS_11char_traitsIcEENS_9allocatorIcEEE5c_strEv(%"class.std::__1::basic_string"* %182) #13
  %184 = invoke i32 @atoi(i8* %183)
          to label %185 unwind label %126

; <label>:185:                                    ; preds = %179
  %186 = getelementptr inbounds %"struct.LL2W::StoreNode", %"struct.LL2W::StoreNode"* %33, i32 0, i32 8
  store i32 %184, i32* %186, align 4
  %187 = load %"class.LL2W::ASTNode"*, %"class.LL2W::ASTNode"** %19, align 8
  %188 = icmp eq %"class.LL2W::ASTNode"* %187, null
  br i1 %188, label %194, label %189

; <label>:189:                                    ; preds = %185
  %190 = bitcast %"class.LL2W::ASTNode"* %187 to void (%"class.LL2W::ASTNode"*)***
  %191 = load void (%"class.LL2W::ASTNode"*)**, void (%"class.LL2W::ASTNode"*)*** %190, align 8
  %192 = getelementptr inbounds void (%"class.LL2W::ASTNode"*)*, void (%"class.LL2W::ASTNode"*)** %191, i64 1
  %193 = load void (%"class.LL2W::ASTNode"*)*, void (%"class.LL2W::ASTNode"*)** %192, align 8
  call void %193(%"class.LL2W::ASTNode"* %187) #13
  br label %194

; <label>:194:                                    ; preds = %189, %185
  %195 = load %"class.LL2W::ASTNode"*, %"class.LL2W::ASTNode"** %20, align 8
  %196 = icmp ne %"class.LL2W::ASTNode"* %195, null
  br i1 %196, label %197, label %218

; <label>:197:                                    ; preds = %194
  %198 = load %"class.LL2W::ASTNode"*, %"class.LL2W::ASTNode"** %20, align 8
  %199 = getelementptr inbounds %"class.LL2W::ASTNode", %"class.LL2W::ASTNode"* %198, i32 0, i32 3
  %200 = load %"class.std::__1::basic_string"*, %"class.std::__1::basic_string"** %199, align 8
  invoke void @_ZNKSt3__112basic_stringIcNS_11char_traitsIcEENS_9allocatorIcEEE6substrEmm(%"class.std::__1::basic_string"* sret %32, %"class.std::__1::basic_string"* %200, i64 1, i64 -1)
          to label %201 unwind label %126

; <label>:201:                                    ; preds = %197
  %202 = call i8* @_ZNKSt3__112basic_stringIcNS_11char_traitsIcEENS_9allocatorIcEEE5c_strEv(%"class.std::__1::basic_string"* %32) #13
  %203 = invoke i32 @atoi(i8* %202)
          to label %204 unwind label %214

; <label>:204:                                    ; preds = %201
  %205 = getelementptr inbounds %"struct.LL2W::StoreNode", %"struct.LL2W::StoreNode"* %33, i32 0, i32 10
  store i32 %203, i32* %205, align 4
  call void @_ZNSt3__112basic_stringIcNS_11char_traitsIcEENS_9allocatorIcEEED1Ev(%"class.std::__1::basic_string"* %32) #13
  %206 = load %"class.LL2W::ASTNode"*, %"class.LL2W::ASTNode"** %20, align 8
  %207 = icmp eq %"class.LL2W::ASTNode"* %206, null
  br i1 %207, label %213, label %208

; <label>:208:                                    ; preds = %204
  %209 = bitcast %"class.LL2W::ASTNode"* %206 to void (%"class.LL2W::ASTNode"*)***
  %210 = load void (%"class.LL2W::ASTNode"*)**, void (%"class.LL2W::ASTNode"*)*** %209, align 8
  %211 = getelementptr inbounds void (%"class.LL2W::ASTNode"*)*, void (%"class.LL2W::ASTNode"*)** %210, i64 1
  %212 = load void (%"class.LL2W::ASTNode"*)*, void (%"class.LL2W::ASTNode"*)** %211, align 8
  call void %212(%"class.LL2W::ASTNode"* %206) #13
  br label %213

; <label>:213:                                    ; preds = %208, %204
  br label %218

; <label>:214:                                    ; preds = %201
  %215 = landingpad { i8*, i32 }
          cleanup
  %216 = extractvalue { i8*, i32 } %215, 0
  store i8* %216, i8** %21, align 8
  %217 = extractvalue { i8*, i32 } %215, 1
  store i32 %217, i32* %22, align 4
  call void @_ZNSt3__112basic_stringIcNS_11char_traitsIcEENS_9allocatorIcEEED1Ev(%"class.std::__1::basic_string"* %32) #13
  br label %219

; <label>:218:                                    ; preds = %213, %194
  ret void

; <label>:219:                                    ; preds = %214, %134, %130, %126
  %220 = bitcast %"struct.LL2W::StoreNode"* %33 to %"struct.LL2W::InstructionNode"*
  call void @_ZN4LL2W15InstructionNodeD2Ev(%"struct.LL2W::InstructionNode"* %220) #13
  br label %221

; <label>:221:                                    ; preds = %219
  %222 = load i8*, i8** %21, align 8
  %223 = load i32, i32* %22, align 4
  %224 = insertvalue { i8*, i32 } undef, i8* %222, 0
  %225 = insertvalue { i8*, i32 } %224, i32 %223, 1
  resume { i8*, i32 } %225

; <label>:226:                                    ; preds = %165
  unreachable
}

; Function Attrs: noinline nounwind optnone ssp uwtable
define linkonce_odr hidden %"struct.std::__1::__hash_node_base.52"* @_ZNSt3__113unordered_mapIN4LL2W8OrderingENS_12basic_stringIcNS_11char_traitsIcEENS_9allocatorIcEEEENS_4hashIS2_EENS_8equal_toIS2_EENS6_INS_4pairIKS2_S8_EEEEE5beginEv(%"class.std::__1::unordered_map.47"*) #1 align 2 {
  %2 = alloca %"class.std::__1::__hash_map_iterator.76", align 8
